(dp0
S'776616'
p1
I146116
sS'776448'
p2
I145945
sS'776449'
p3
I145946
sS'776446'
p4
I145943
sS'776447'
p5
I145944
sS'776444'
p6
I145941
sS'776445'
p7
I145942
sS'776442'
p8
I145939
sS'776443'
p9
I145940
sS'776440'
p10
I145937
sS'776441'
p11
I145938
sS'777139'
p12
I146517
sS'777138'
p13
I146516
sS'778114'
p14
I147544
sS'778115'
p15
I147545
sS'778112'
p16
I147542
sS'778113'
p17
I147543
sS'778110'
p18
I147540
sS'778111'
p19
I147541
sS'777131'
p20
I146509
sS'777130'
p21
I146508
sS'777133'
p22
I146511
sS'777132'
p23
I146510
sS'777135'
p24
I146513
sS'777134'
p25
I146512
sS'778118'
p26
I147548
sS'777136'
p27
I146514
sS'776842'
p28
I146345
sS'776843'
p29
I146346
sS'776840'
p30
I146343
sS'776841'
p31
I146344
sS'776846'
p32
I146349
sS'776847'
p33
I146350
sS'776844'
p34
I146347
sS'776845'
p35
I146348
sS'778354'
p36
I147798
sS'776849'
p37
I146352
sS'778288'
p38
I147727
sS'778289'
p39
I147728
sS'776532'
p40
I146030
sS'776533'
p41
I146031
sS'776530'
p42
I146028
sS'776531'
p43
I146029
sS'776536'
p44
I146034
sS'776537'
p45
I146035
sS'776534'
p46
I146032
sS'776535'
p47
I146033
sS'777827'
p48
I147246
sS'777826'
p49
I147245
sS'776538'
p50
I146036
sS'776539'
p51
I146037
sS'777823'
p52
I147242
sS'777822'
p53
I147241
sS'777821'
p54
I147239
sS'777820'
p55
I147238
sS'776668'
p56
I146168
sS'776669'
p57
I146169
sS'776662'
p58
I146161
sS'776663'
p59
I146163
sS'776660'
p60
I146159
sS'776661'
p61
I146160
sS'776666'
p62
I146166
sS'776667'
p63
I146167
sS'776664'
p64
I146164
sS'776665'
p65
I146165
sS'777225'
p66
I146611
sS'777224'
p67
I146610
sS'777227'
p68
I146613
sS'777226'
p69
I146612
sS'777221'
p70
I146607
sS'777220'
p71
I146606
sS'777223'
p72
I146609
sS'777222'
p73
I146608
sS'779541'
p74
I149032
sS'777229'
p75
I146615
sS'777228'
p76
I146614
sS'779894'
p77
I149392
sS'778116'
p78
I147546
sS'779896'
p79
I149394
sS'779897'
p80
I149395
sS'779890'
p81
I149388
sS'779891'
p82
I149389
sS'779892'
p83
I149390
sS'778117'
p84
I147547
sS'776819'
p85
I146322
sS'779057'
p86
I148536
sS'779898'
p87
I149396
sS'779899'
p88
I149398
sS'779354'
p89
I148838
sS'780177'
p90
I149685
sS'780176'
p91
I149684
sS'780175'
p92
I149683
sS'780174'
p93
I149682
sS'780173'
p94
I149681
sS'780172'
p95
I149680
sS'780171'
p96
I149679
sS'780170'
p97
I149678
sS'779058'
p98
I148537
sS'778082'
p99
I147513
sS'2848353'
p100
I1425843
sS'777150'
p101
I146528
sS'2848355'
p102
I1425845
sS'2848307'
p103
I1425795
sS'780179'
p104
I149687
sS'780178'
p105
I149686
sS'778350'
p106
I147794
sS'2848333'
p107
I1425823
sS'2848332'
p108
I1425822
sS'2848331'
p109
I1425821
sS'2848330'
p110
I1425820
sS'777137'
p111
I146515
sS'776610'
p112
I146108
sS'2848337'
p113
I1425827
sS'778119'
p114
I147549
sS'778402'
p115
I147847
sS'778351'
p116
I147795
sS'2848336'
p117
I1425826
sS'778286'
p118
I147725
sS'778403'
p119
I147848
sS'2848335'
p120
I1425825
sS'778287'
p121
I147726
sS'2848334'
p122
I1425824
sS'778284'
p123
I147723
sS'778285'
p124
I147724
sS'2848228'
p125
I1425712
sS'778282'
p126
I147720
sS'778283'
p127
I147721
sS'776815'
p128
I146318
sS'778280'
p129
I147718
sS'778281'
p130
I147719
sS'2848321'
p131
I1425810
sS'777535'
p132
I146941
sS'778353'
p133
I147797
sS'2848235'
p134
I1425721
sS'2848412'
p135
I1425906
sS'2848413'
p136
I1425907
sS'777127'
p137
I146505
sS'779032'
p138
I148515
sS'777534'
p139
I146940
sS'2848411'
p140
I1425905
sS'779033'
p141
I148516
sS'2848416'
p142
I1425910
sS'779030'
p143
I148513
sS'2848417'
p144
I1425911
sS'779523'
p145
I149013
sS'778257'
p146
I147695
sS'2848414'
p147
I1425908
sS'779524'
p148
I149014
sS'2848415'
p149
I1425909
sS'776439'
p150
I145936
sS'779525'
p151
I149015
sS'2848135'
p152
I1425615
sS'2848063'
p153
I1425537
sS'2848137'
p154
I1425617
sS'776438'
p155
I145935
sS'2848131'
p156
I1425611
sS'779526'
p157
I149016
sS'778859'
p158
I148336
sS'778858'
p159
I148334
sS'778857'
p160
I148333
sS'778856'
p161
I148332
sS'778855'
p162
I148331
sS'778854'
p163
I148329
sS'778853'
p164
I148328
sS'778852'
p165
I148327
sS'778851'
p166
I148326
sS'778850'
p167
I148325
sS'779708'
p168
I149204
sS'777829'
p169
I147247
sS'779258'
p170
I148740
sS'779259'
p171
I148741
sS'779256'
p172
I148738
sS'779257'
p173
I148739
sS'779254'
p174
I148736
sS'779255'
p175
I148737
sS'779252'
p176
I148734
sS'779253'
p177
I148735
sS'779250'
p178
I148732
sS'779251'
p179
I148733
sS'776925'
p180
I146428
sS'776432'
p181
I145929
sS'776811'
p182
I146314
sS'777825'
p183
I147244
sS'777824'
p184
I147243
sS'777438'
p185
I146839
sS'2848517'
p186
I1426016
sS'778596'
p187
I148063
sS'777439'
p188
I146840
sS'776435'
p189
I145932
sS'776434'
p190
I145931
sS'2848322'
p191
I1425811
sS'780009'
p192
I149509
sS'779418'
p193
I148904
sS'779419'
p194
I148905
sS'780008'
p195
I149508
sS'779410'
p196
I148896
sS'779411'
p197
I148897
sS'779412'
p198
I148898
sS'779413'
p199
I148899
sS'779414'
p200
I148900
sS'779415'
p201
I148901
sS'779416'
p202
I148902
sS'779417'
p203
I148903
sS'776602'
p204
I146100
sS'780003'
p205
I149503
sS'776812'
p206
I146315
sS'779098'
p207
I148576
sS'779099'
p208
I148577
sS'780002'
p209
I149502
sS'779094'
p210
I148572
sS'779095'
p211
I148573
sS'779096'
p212
I148574
sS'779097'
p213
I148575
sS'779090'
p214
I148568
sS'779091'
p215
I148569
sS'779092'
p216
I148570
sS'779093'
p217
I148571
sS'779674'
p218
I149169
sS'779675'
p219
I149170
sS'778279'
p220
I147717
sS'778278'
p221
I147716
sS'779670'
p222
I149163
sS'779671'
p223
I149166
sS'779672'
p224
I149167
sS'779673'
p225
I149168
sS'778273'
p226
I147711
sS'778272'
p227
I147710
sS'778271'
p228
I147709
sS'778270'
p229
I147708
sS'778277'
p230
I147715
sS'778276'
p231
I147714
sS'778275'
p232
I147713
sS'778274'
p233
I147712
sS'779076'
p234
I148554
sS'779077'
p235
I148555
sS'779074'
p236
I148552
sS'779075'
p237
I148553
sS'778079'
p238
I147510
sS'778078'
p239
I147509
sS'779070'
p240
I148548
sS'779071'
p241
I148549
sS'778075'
p242
I147506
sS'778074'
p243
I147505
sS'778077'
p244
I147508
sS'778076'
p245
I147507
sS'778070'
p246
I147501
sS'778073'
p247
I147504
sS'778072'
p248
I147503
sS'777922'
p249
I147345
sS'777923'
p250
I147346
sS'777920'
p251
I147343
sS'777921'
p252
I147344
sS'777926'
p253
I147349
sS'777927'
p254
I147350
sS'777924'
p255
I147347
sS'777925'
p256
I147348
sS'777928'
p257
I147351
sS'777929'
p258
I147352
sS'778471'
p259
I147919
sS'778470'
p260
I147918
sS'778473'
p261
I147921
sS'778472'
p262
I147920
sS'778475'
p263
I147923
sS'778474'
p264
I147922
sS'778477'
p265
I147925
sS'778476'
p266
I147924
sS'778479'
p267
I147927
sS'778478'
p268
I147926
sS'778714'
p269
I148187
sS'778715'
p270
I148188
sS'778716'
p271
I148189
sS'778618'
p272
I148085
sS'778717'
p273
I148190
sS'778611'
p274
I148078
sS'778610'
p275
I148077
sS'778613'
p276
I148080
sS'778612'
p277
I148079
sS'778615'
p278
I148082
sS'778614'
p279
I148081
sS'778617'
p280
I148084
sS'778616'
p281
I148083
sS'778712'
p282
I148185
sS'777445'
p283
I146847
sS'778713'
p284
I148186
sS'777728'
p285
I147137
sS'777729'
p286
I147138
sS'777724'
p287
I147132
sS'777725'
p288
I147133
sS'777726'
p289
I147134
sS'777727'
p290
I147136
sS'777720'
p291
I147128
sS'777721'
p292
I147129
sS'777722'
p293
I147130
sS'777723'
p294
I147131
sS'777104'
p295
I146482
sS'777105'
p296
I146483
sS'777106'
p297
I146484
sS'777107'
p298
I146485
sS'777100'
p299
I146478
sS'777101'
p300
I146479
sS'777102'
p301
I146480
sS'777451'
p302
I146853
sS'776455'
p303
I145952
sS'776454'
p304
I145951
sS'776457'
p305
I145954
sS'776456'
p306
I145953
sS'777108'
p307
I146486
sS'777109'
p308
I146487
sS'776453'
p309
I145950
sS'776452'
p310
I145949
sS'778105'
p311
I147536
sS'778104'
p312
I147535
sS'778107'
p313
I147538
sS'778106'
p314
I147537
sS'778101'
p315
I147533
sS'778100'
p316
I147532
sS'778102'
p317
I147534
sS'776693'
p318
I146193
sS'778109'
p319
I147539
sS'2848487'
p320
I1425985
sS'776692'
p321
I146192
sS'776851'
p322
I146354
sS'776850'
p323
I146353
sS'776853'
p324
I146356
sS'778296'
p325
I147735
sS'778291'
p326
I147730
sS'778290'
p327
I147729
sS'778293'
p328
I147732
sS'776856'
p329
I146359
sS'776859'
p330
I146362
sS'776858'
p331
I146361
sS'779893'
p332
I149391
sS'778299'
p333
I147739
sS'778298'
p334
I147738
sS'2848480'
p335
I1425978
sS'777588'
p336
I146996
sS'777589'
p337
I146997
sS'776523'
p338
I146021
sS'776522'
p339
I146020
sS'776525'
p340
I146023
sS'776524'
p341
I146022
sS'776527'
p342
I146025
sS'776526'
p343
I146024
sS'777580'
p344
I146987
sS'777581'
p345
I146988
sS'777850'
p346
I147268
sS'777583'
p347
I146991
sS'777584'
p348
I146992
sS'777585'
p349
I146993
sS'777586'
p350
I146994
sS'777855'
p351
I147274
sS'776679'
p352
I146179
sS'776678'
p353
I146178
sS'779140'
p354
I148618
sS'776671'
p355
I146171
sS'776670'
p356
I146170
sS'776673'
p357
I146173
sS'776672'
p358
I146172
sS'776675'
p359
I146175
sS'776674'
p360
I146174
sS'776677'
p361
I146177
sS'776676'
p362
I146176
sS'777210'
p363
I146594
sS'777211'
p364
I146596
sS'777212'
p365
I146597
sS'777213'
p366
I146598
sS'777215'
p367
I146600
sS'777216'
p368
I146601
sS'777217'
p369
I146602
sS'777218'
p370
I146603
sS'777219'
p371
I146605
sS'776698'
p372
I146198
sS'778495'
p373
I147947
sS'779883'
p374
I149381
sS'779882'
p375
I149380
sS'779881'
p376
I149379
sS'779880'
p377
I149378
sS'779887'
p378
I149385
sS'779886'
p379
I149384
sS'779885'
p380
I149383
sS'779884'
p381
I149382
sS'778493'
p382
I147944
sS'779889'
p383
I149387
sS'779888'
p384
I149386
sS'778320'
p385
I147764
sS'779148'
p386
I148626
sS'779149'
p387
I148627
sS'780102'
p388
I149606
sS'780103'
p389
I149609
sS'780100'
p390
I149604
sS'780101'
p391
I149605
sS'780106'
p392
I149612
sS'780107'
p393
I149613
sS'780104'
p394
I149610
sS'780105'
p395
I149611
sS'780108'
p396
I149614
sS'780109'
p397
I149615
sS'778963'
p398
I148444
sS'2848565'
p399
I1426064
sS'780141'
p400
I149648
sS'2848462'
p401
I1425959
sS'779452'
p402
I148938
sS'2848358'
p403
I1425848
sS'778962'
p404
I148443
sS'778918'
p405
I148399
sS'778919'
p406
I148400
sS'778916'
p407
I148397
sS'778917'
p408
I148398
sS'778914'
p409
I148395
sS'778915'
p410
I148396
sS'778912'
p411
I148393
sS'778913'
p412
I148394
sS'778910'
p413
I148391
sS'778911'
p414
I148392
sS'780292'
p415
I149800
sS'776809'
p416
I146312
sS'780290'
p417
I149798
sS'780291'
p418
I149799
sS'780296'
p419
I149804
sS'780297'
p420
I149805
sS'780294'
p421
I149802
sS'2848341'
p422
I1425831
sS'780298'
p423
I149806
sS'780299'
p424
I149807
sS'2848348'
p425
I1425838
sS'2848349'
p426
I1425839
sS'2848215'
p427
I1425698
sS'2848325'
p428
I1425815
sS'778045'
p429
I147476
sS'2848354'
p430
I1425844
sS'2848357'
p431
I1425847
sS'777974'
p432
I147403
sS'2848356'
p433
I1425846
sS'777977'
p434
I147406
sS'777976'
p435
I147405
sS'777607'
p436
I147015
sS'777606'
p437
I147014
sS'2848122'
p438
I1425602
sS'2848123'
p439
I1425603
sS'778828'
p440
I148303
sS'778829'
p441
I148304
sS'2848126'
p442
I1425606
sS'777605'
p443
I147013
sS'2848124'
p444
I1425604
sS'777549'
p445
I146955
sS'778822'
p446
I148297
sS'778823'
p447
I148298
sS'778820'
p448
I148295
sS'778821'
p449
I148296
sS'778826'
p450
I148301
sS'778827'
p451
I148302
sS'778824'
p452
I148299
sS'778825'
p453
I148300
sS'779719'
p454
I149216
sS'779718'
p455
I149215
sS'779249'
p456
I148731
sS'779248'
p457
I148730
sS'779245'
p458
I148727
sS'779244'
p459
I148726
sS'779247'
p460
I148729
sS'779246'
p461
I148728
sS'779241'
p462
I148723
sS'779240'
p463
I148722
sS'779243'
p464
I148725
sS'779242'
p465
I148724
sS'778974'
p466
I148455
sS'778975'
p467
I148456
sS'778976'
p468
I148457
sS'780436'
p469
I149870
sS'780437'
p470
I149871
sS'780434'
p471
I149868
sS'778977'
p472
I148458
sS'780433'
p473
I149867
sS'780430'
p474
I149865
sS'780431'
p475
I149866
sS'778970'
p476
I148451
sS'780438'
p477
I149872
sS'778971'
p478
I148452
sS'778972'
p479
I148453
sS'778973'
p480
I148454
sS'779407'
p481
I148893
sS'779406'
p482
I148892
sS'779405'
p483
I148891
sS'779404'
p484
I148890
sS'779403'
p485
I148889
sS'779402'
p486
I148888
sS'779401'
p487
I148887
sS'779400'
p488
I148886
sS'779619'
p489
I149110
sS'779409'
p490
I148895
sS'779408'
p491
I148894
sS'776556'
p492
I146054
sS'776803'
p493
I146306
sS'779089'
p494
I148567
sS'779088'
p495
I148566
sS'779083'
p496
I148561
sS'779082'
p497
I148560
sS'779081'
p498
I148559
sS'779080'
p499
I148558
sS'779087'
p500
I148565
sS'779086'
p501
I148564
sS'779085'
p502
I148563
sS'779084'
p503
I148562
sS'779663'
p504
I149156
sS'779662'
p505
I149155
sS'779661'
p506
I149154
sS'779660'
p507
I149152
sS'779667'
p508
I149160
sS'779666'
p509
I149159
sS'779665'
p510
I149158
sS'779664'
p511
I149157
sS'779669'
p512
I149162
sS'779668'
p513
I149161
sS'776637'
p514
I146137
sS'778048'
p515
I147479
sS'778049'
p516
I147480
sS'778598'
p517
I148065
sS'778599'
p518
I148066
sS'779061'
p519
I148540
sS'779060'
p520
I148539
sS'779063'
p521
I148542
sS'779062'
p522
I148541
sS'778040'
p523
I147471
sS'778041'
p524
I147472
sS'778042'
p525
I147473
sS'778043'
p526
I147474
sS'779069'
p527
I148547
sS'778597'
p528
I148064
sS'778594'
p529
I148060
sS'778047'
p530
I147478
sS'777931'
p531
I147354
sS'777933'
p532
I147356
sS'778142'
p533
I147573
sS'777935'
p534
I147358
sS'777934'
p535
I147357
sS'777937'
p536
I147360
sS'777936'
p537
I147359
sS'777938'
p538
I147361
sS'776636'
p539
I146136
sS'778144'
p540
I147575
sS'778448'
p541
I147893
sS'777784'
p542
I147195
sS'778444'
p543
I147889
sS'778445'
p544
I147890
sS'778446'
p545
I147891
sS'777785'
p546
I147196
sS'778440'
p547
I147885
sS'778441'
p548
I147886
sS'778442'
p549
I147887
sS'778443'
p550
I147888
sS'778625'
p551
I148092
sS'778626'
p552
I148094
sS'778621'
p553
I148088
sS'778623'
p554
I148090
sS'778628'
p555
I148096
sS'778629'
p556
I148097
sS'778394'
p557
I147839
sS'778395'
p558
I147840
sS'778886'
p559
I148367
sS'777555'
p560
I146961
sS'778398'
p561
I147843
sS'777739'
p562
I147148
sS'777738'
p563
I147147
sS'778399'
p564
I147844
sS'777733'
p565
I147142
sS'777732'
p566
I147141
sS'777731'
p567
I147140
sS'777737'
p568
I147146
sS'777736'
p569
I147145
sS'777735'
p570
I147144
sS'777734'
p571
I147143
sS'776468'
p572
I145966
sS'776469'
p573
I145967
sS'777447'
p574
I146849
sS'777110'
p575
I146488
sS'777441'
p576
I146842
sS'777440'
p577
I146841
sS'777443'
p578
I146845
sS'777442'
p579
I146844
sS'776460'
p580
I145957
sS'776461'
p581
I145958
sS'776462'
p582
I145959
sS'777118'
p583
I146496
sS'777449'
p584
I146851
sS'777448'
p585
I146850
sS'776466'
p586
I145964
sS'776467'
p587
I145965
sS'778130'
p588
I147560
sS'778131'
p589
I147561
sS'778132'
p590
I147562
sS'778133'
p591
I147563
sS'778134'
p592
I147564
sS'778135'
p593
I147565
sS'778136'
p594
I147566
sS'778137'
p595
I147567
sS'778138'
p596
I147568
sS'778139'
p597
I147570
sS'776436'
p598
I145933
sS'777597'
p599
I147005
sS'777596'
p600
I147004
sS'777595'
p601
I147003
sS'777594'
p602
I147002
sS'777593'
p603
I147001
sS'777592'
p604
I147000
sS'777591'
p605
I146999
sS'777590'
p606
I146998
sS'776864'
p607
I146367
sS'776865'
p608
I146368
sS'776866'
p609
I146369
sS'776867'
p610
I146370
sS'776860'
p611
I146363
sS'776861'
p612
I146364
sS'777599'
p613
I147007
sS'777598'
p614
I147006
sS'777849'
p615
I147267
sS'776518'
p616
I146016
sS'776519'
p617
I146017
sS'777841'
p618
I147259
sS'776515'
p619
I146013
sS'776516'
p620
I146014
sS'776517'
p621
I146015
sS'777845'
p622
I147263
sS'776511'
p623
I146009
sS'776512'
p624
I146010
sS'776513'
p625
I146011
sS'776886'
p626
I146389
sS'776887'
p627
I146390
sS'776884'
p628
I146387
sS'776885'
p629
I146388
sS'776882'
p630
I146385
sS'776883'
p631
I146386
sS'776880'
p632
I146383
sS'776881'
p633
I146384
sS'776888'
p634
I146391
sS'776889'
p635
I146392
sS'777209'
p636
I146593
sS'777208'
p637
I146592
sS'777207'
p638
I146591
sS'777206'
p639
I146590
sS'777205'
p640
I146589
sS'777204'
p641
I146588
sS'777203'
p642
I146587
sS'777202'
p643
I146586
sS'777201'
p644
I146584
sS'777200'
p645
I146583
sS'779878'
p646
I149376
sS'779879'
p647
I149377
sS'779876'
p648
I149374
sS'779877'
p649
I149375
sS'779874'
p650
I149373
sS'779872'
p651
I149371
sS'779873'
p652
I149372
sS'779871'
p653
I149369
sS'780111'
p654
I149617
sS'777254'
p655
I146640
sS'780113'
p656
I149619
sS'780112'
p657
I149618
sS'780115'
p658
I149621
sS'780114'
p659
I149620
sS'780117'
p660
I149624
sS'777255'
p661
I146641
sS'780119'
p662
I149626
sS'780118'
p663
I149625
sS'777524'
p664
I146930
sS'777995'
p665
I147425
sS'777525'
p666
I146931
sS'777522'
p667
I146928
sS'779371'
p668
I148855
sS'777252'
p669
I146638
sS'777253'
p670
I146639
sS'776644'
p671
I146144
sS'776645'
p672
I146145
sS'776646'
p673
I146146
sS'776647'
p674
I146147
sS'776640'
p675
I146140
sS'776641'
p676
I146141
sS'776642'
p677
I146142
sS'776643'
p678
I146143
sS'779982'
p679
I149482
sS'779983'
p680
I149483
sS'779980'
p681
I149480
sS'779981'
p682
I149481
sS'776648'
p683
I146148
sS'776649'
p684
I146149
sS'779984'
p685
I149484
sS'779985'
p686
I149485
sS'777444'
p687
I146846
sS'2848249'
p688
I1425735
sS'2848248'
p689
I1425734
sS'2848247'
p690
I1425733
sS'2848246'
p691
I1425732
sS'2848245'
p692
I1425731
sS'2848244'
p693
I1425730
sS'778237'
p694
I147671
sS'2848182'
p695
I1425664
sS'779910'
p696
I149412
sS'777390'
p697
I146788
sS'2848183'
p698
I1425665
sS'776374'
p699
I145870
sS'2848184'
p700
I1425666
sS'778909'
p701
I148390
sS'778908'
p702
I148389
sS'779846'
p703
I149343
sS'778905'
p704
I148386
sS'778904'
p705
I148385
sS'778907'
p706
I148388
sS'778906'
p707
I148387
sS'778901'
p708
I148382
sS'778900'
p709
I148381
sS'778903'
p710
I148384
sS'778902'
p711
I148383
sS'780281'
p712
I149788
sS'780280'
p713
I149787
sS'780283'
p714
I149790
sS'780282'
p715
I149789
sS'780285'
p716
I149792
sS'780284'
p717
I149791
sS'780287'
p718
I149794
sS'780286'
p719
I149793
sS'780289'
p720
I149797
sS'780288'
p721
I149796
sS'2848339'
p722
I1425829
sS'2848338'
p723
I1425828
sS'2848069'
p724
I1425544
sS'2848068'
p725
I1425543
sS'780157'
p726
I149664
sS'2848062'
p727
I1425536
sS'2848061'
p728
I1425535
sS'2848060'
p729
I1425534
sS'2848067'
p730
I1425542
sS'2848066'
p731
I1425541
sS'2848065'
p732
I1425540
sS'2848064'
p733
I1425538
sS'779925'
p734
I149425
sS'779926'
p735
I149426
sS'2848210'
p736
I1425693
sS'779927'
p737
I149427
sS'779698'
p738
I149194
sS'779920'
p739
I149421
sS'779699'
p740
I149195
sS'778839'
p741
I148314
sS'778838'
p742
I148313
sS'2848489'
p743
I1425987
sS'777098'
p744
I146476
sS'778355'
p745
I147799
sS'778831'
p746
I148306
sS'778830'
p747
I148305
sS'778833'
p748
I148308
sS'777099'
p749
I146477
sS'778835'
p750
I148310
sS'778834'
p751
I148309
sS'778837'
p752
I148312
sS'778836'
p753
I148311
sS'779278'
p754
I148760
sS'779279'
p755
I148762
sS'778425'
p756
I147870
sS'779270'
p757
I148752
sS'779271'
p758
I148753
sS'779272'
p759
I148754
sS'779273'
p760
I148755
sS'779274'
p761
I148756
sS'779275'
p762
I148757
sS'779276'
p763
I148758
sS'779277'
p764
I148759
sS'2848467'
p765
I1425965
sS'2848466'
p766
I1425964
sS'2848465'
p767
I1425963
sS'2848464'
p768
I1425962
sS'2848463'
p769
I1425960
sS'779690'
p770
I149185
sS'2848461'
p771
I1425958
sS'2848460'
p772
I1425957
sS'779691'
p773
I149186
sS'2848469'
p774
I1425967
sS'2848468'
p775
I1425966
sS'780425'
p776
I149860
sS'780424'
p777
I149859
sS'780427'
p778
I149862
sS'780426'
p779
I149861
sS'780421'
p780
I149856
sS'780420'
p781
I149855
sS'780423'
p782
I149858
sS'780422'
p783
I149857
sS'2848387'
p784
I1425881
sS'780429'
p785
I149864
sS'780428'
p786
I149863
sS'779472'
p787
I148961
sS'779473'
p788
I148962
sS'779470'
p789
I148958
sS'779471'
p790
I148959
sS'779476'
p791
I148965
sS'779477'
p792
I148966
sS'779474'
p793
I148963
sS'779475'
p794
I148964
sS'779478'
p795
I148967
sS'779479'
p796
I148968
sS'778581'
p797
I148044
sS'778710'
p798
I148183
sS'779059'
p799
I148538
sS'778583'
p800
I148046
sS'776828'
p801
I146331
sS'779505'
p802
I148994
sS'776829'
p803
I146332
sS'779502'
p804
I148991
sS'777551'
p805
I146957
sS'779503'
p806
I148992
sS'777806'
p807
I147217
sS'779500'
p808
I148989
sS'777801'
p809
I147212
sS'779501'
p810
I148990
sS'777556'
p811
I146962
sS'778057'
p812
I147488
sS'778056'
p813
I147487
sS'778055'
p814
I147486
sS'778054'
p815
I147485
sS'778053'
p816
I147484
sS'778052'
p817
I147483
sS'778051'
p818
I147482
sS'778050'
p819
I147481
sS'779696'
p820
I149191
sS'779697'
p821
I149193
sS'779694'
p822
I149189
sS'779695'
p823
I149190
sS'779692'
p824
I149187
sS'779693'
p825
I149188
sS'778059'
p826
I147490
sS'778058'
p827
I147489
sS'778589'
p828
I148054
sS'778588'
p829
I148052
sS'779053'
p830
I148532
sS'779054'
p831
I148533
sS'779055'
p832
I148534
sS'779508'
p833
I148997
sS'779509'
p834
I148999
sS'779506'
p835
I148995
sS'779507'
p836
I148996
sS'779504'
p837
I148993
sS'778582'
p838
I148045
sS'778585'
p839
I148048
sS'778584'
p840
I148047
sS'778587'
p841
I148051
sS'778586'
p842
I148049
sS'2848438'
p843
I1425934
sS'776823'
p844
I146326
sS'777908'
p845
I147331
sS'777909'
p846
I147332
sS'2848439'
p847
I1425935
sS'777904'
p848
I147327
sS'777905'
p849
I147328
sS'777906'
p850
I147329
sS'777907'
p851
I147330
sS'777900'
p852
I147321
sS'777901'
p853
I147322
sS'777902'
p854
I147323
sS'777903'
p855
I147325
sS'779182'
p856
I148661
sS'779183'
p857
I148662
sS'779180'
p858
I148659
sS'778458'
p859
I147905
sS'779186'
p860
I148667
sS'779187'
p861
I148668
sS'779184'
p862
I148663
sS'779185'
p863
I148665
sS'778453'
p864
I147899
sS'778452'
p865
I147898
sS'779188'
p866
I148669
sS'778450'
p867
I147896
sS'778457'
p868
I147904
sS'778456'
p869
I147903
sS'778455'
p870
I147902
sS'778454'
p871
I147900
sS'778633'
p872
I148101
sS'778632'
p873
I148100
sS'778631'
p874
I148099
sS'777697'
p875
I147105
sS'778637'
p876
I148106
sS'778636'
p877
I148105
sS'777692'
p878
I147100
sS'777693'
p879
I147101
sS'778639'
p880
I148108
sS'778638'
p881
I148107
sS'777698'
p882
I147106
sS'777699'
p883
I147107
sS'776603'
p884
I146101
sS'776604'
p885
I146102
sS'2848389'
p886
I1425883
sS'776605'
p887
I146103
sS'776606'
p888
I146104
sS'2848434'
p889
I1425929
sS'776607'
p890
I146105
sS'778459'
p891
I147906
sS'2848435'
p892
I1425931
sS'779181'
p893
I148660
sS'776609'
p894
I146107
sS'777470'
p895
I146873
sS'777471'
p896
I146874
sS'777472'
p897
I146875
sS'777473'
p898
I146876
sS'777474'
p899
I146878
sS'777475'
p900
I146879
sS'777476'
p901
I146880
sS'777477'
p902
I146881
sS'777478'
p903
I146882
sS'777479'
p904
I146884
sS'778129'
p905
I147559
sS'778128'
p906
I147558
sS'778127'
p907
I147557
sS'778126'
p908
I147556
sS'778125'
p909
I147555
sS'778124'
p910
I147554
sS'778123'
p911
I147553
sS'778122'
p912
I147552
sS'778121'
p913
I147551
sS'778120'
p914
I147550
sS'777874'
p915
I147294
sS'777875'
p916
I147295
sS'777876'
p917
I147296
sS'777877'
p918
I147297
sS'777870'
p919
I147290
sS'777871'
p920
I147291
sS'777872'
p921
I147292
sS'777873'
p922
I147293
sS'776873'
p923
I146376
sS'776872'
p924
I146375
sS'776871'
p925
I146374
sS'776870'
p926
I146373
sS'777878'
p927
I147298
sS'777879'
p928
I147299
sS'776875'
p929
I146378
sS'776874'
p930
I146377
sS'776509'
p931
I146007
sS'776508'
p932
I146006
sS'778884'
p933
I148365
sS'776503'
p934
I146001
sS'776502'
p935
I146000
sS'776501'
p936
I145999
sS'776500'
p937
I145998
sS'776507'
p938
I146005
sS'776506'
p939
I146004
sS'776505'
p940
I146003
sS'776504'
p941
I146002
sS'776895'
p942
I146398
sS'776894'
p943
I146397
sS'776897'
p944
I146400
sS'776896'
p945
I146399
sS'776891'
p946
I146394
sS'776890'
p947
I146393
sS'776893'
p948
I146396
sS'776892'
p949
I146395
sS'776899'
p950
I146402
sS'777696'
p951
I147104
sS'777278'
p952
I146665
sS'777273'
p953
I146659
sS'777270'
p954
I146656
sS'777271'
p955
I146657
sS'777276'
p956
I146662
sS'777277'
p957
I146663
sS'777274'
p958
I146660
sS'777275'
p959
I146661
sS'779868'
p960
I149368
sS'2848134'
p961
I1425614
sS'779865'
p962
I149365
sS'779864'
p963
I149363
sS'779867'
p964
I149367
sS'779866'
p965
I149366
sS'779861'
p966
I149359
sS'779860'
p967
I149358
sS'779863'
p968
I149361
sS'779862'
p969
I149360
sS'776477'
p970
I145975
sS'776476'
p971
I145974
sS'776475'
p972
I145973
sS'776474'
p973
I145972
sS'776473'
p974
I145971
sS'776472'
p975
I145970
sS'776471'
p976
I145969
sS'776470'
p977
I145968
sS'776479'
p978
I145977
sS'776478'
p979
I145976
sS'2848529'
p980
I1426028
sS'780128'
p981
I149635
sS'780129'
p982
I149636
sS'780124'
p983
I149631
sS'780125'
p984
I149632
sS'780126'
p985
I149633
sS'780127'
p986
I149634
sS'780120'
p987
I149627
sS'780121'
p988
I149628
sS'780122'
p989
I149629
sS'780123'
p990
I149630
sS'777306'
p991
I146696
sS'777307'
p992
I146698
sS'777304'
p993
I146694
sS'777305'
p994
I146695
sS'777302'
p995
I146691
sS'777303'
p996
I146693
sS'777300'
p997
I146689
sS'777301'
p998
I146690
sS'777308'
p999
I146699
sS'777309'
p1000
I146700
sS'778228'
p1001
I147662
sS'778229'
p1002
I147663
sS'2848139'
p1003
I1425619
sS'778738'
p1004
I148211
sS'2848138'
p1005
I1425618
sS'776653'
p1006
I146152
sS'779998'
p1007
I149498
sS'778739'
p1008
I148212
sS'776657'
p1009
I146156
sS'776656'
p1010
I146155
sS'776655'
p1011
I146154
sS'776654'
p1012
I146153
sS'779991'
p1013
I149491
sS'779990'
p1014
I149490
sS'776659'
p1015
I146158
sS'776658'
p1016
I146157
sS'779995'
p1017
I149495
sS'779994'
p1018
I149494
sS'779997'
p1019
I149497
sS'779996'
p1020
I149496
sS'2848258'
p1021
I1425744
sS'2848259'
p1022
I1425745
sS'2848254'
p1023
I1425740
sS'2848255'
p1024
I1425741
sS'2848256'
p1025
I1425742
sS'2848257'
p1026
I1425743
sS'2848250'
p1027
I1425736
sS'2848251'
p1028
I1425737
sS'2848252'
p1029
I1425738
sS'2848253'
p1030
I1425739
sS'778732'
p1031
I148205
sS'778733'
p1032
I148206
sS'777983'
p1033
I147413
sS'778730'
p1034
I148203
sS'779709'
p1035
I149205
sS'778938'
p1036
I148419
sS'778939'
p1037
I148420
sS'778731'
p1038
I148204
sS'778930'
p1039
I148411
sS'778931'
p1040
I148412
sS'778932'
p1041
I148413
sS'778933'
p1042
I148414
sS'778934'
p1043
I148415
sS'778935'
p1044
I148416
sS'778936'
p1045
I148417
sS'778225'
p1046
I147659
sS'2848320'
p1047
I1425809
sS'779704'
p1048
I149200
sS'778703'
p1049
I148176
sS'2848323'
p1050
I1425812
sS'2848324'
p1051
I1425813
sS'778734'
p1052
I148207
sS'2848326'
p1053
I1425816
sS'779705'
p1054
I149201
sS'2848328'
p1055
I1425818
sS'2848329'
p1056
I1425819
sS'778735'
p1057
I148208
sS'779706'
p1058
I149202
sS'2848078'
p1059
I1425553
sS'2848079'
p1060
I1425554
sS'2848395'
p1061
I1425889
sS'779707'
p1062
I149203
sS'2848070'
p1063
I1425545
sS'779700'
p1064
I149196
sS'2848072'
p1065
I1425547
sS'780460'
p1066
I149896
sS'2848074'
p1067
I1425549
sS'2848075'
p1068
I1425550
sS'2848076'
p1069
I1425551
sS'779701'
p1070
I149197
sS'780256'
p1071
I149763
sS'780257'
p1072
I149764
sS'780254'
p1073
I149761
sS'780255'
p1074
I149762
sS'780252'
p1075
I149759
sS'779702'
p1076
I149198
sS'780250'
p1077
I149757
sS'780251'
p1078
I149758
sS'779703'
p1079
I149199
sS'780258'
p1080
I149765
sS'780259'
p1081
I149766
sS'778804'
p1082
I148279
sS'778805'
p1083
I148280
sS'778806'
p1084
I148281
sS'778807'
p1085
I148282
sS'778800'
p1086
I148275
sS'778801'
p1087
I148276
sS'778802'
p1088
I148277
sS'778803'
p1089
I148278
sS'778808'
p1090
I148283
sS'778809'
p1091
I148284
sS'2848498'
p1092
I1425996
sS'2848499'
p1093
I1425997
sS'2848492'
p1094
I1425990
sS'2848493'
p1095
I1425991
sS'2848490'
p1096
I1425988
sS'2848491'
p1097
I1425989
sS'2848496'
p1098
I1425994
sS'2848497'
p1099
I1425995
sS'2848397'
p1100
I1425891
sS'2848495'
p1101
I1425993
sS'776804'
p1102
I146307
sS'2848474'
p1103
I1425972
sS'2848475'
p1104
I1425973
sS'2848476'
p1105
I1425974
sS'2848477'
p1106
I1425975
sS'2848470'
p1107
I1425968
sS'2848471'
p1108
I1425969
sS'2848472'
p1109
I1425970
sS'2848473'
p1110
I1425971
sS'780093'
p1111
I149597
sS'2848478'
p1112
I1425976
sS'2848479'
p1113
I1425977
sS'780410'
p1114
I149844
sS'780411'
p1115
I149845
sS'780412'
p1116
I149847
sS'780413'
p1117
I149848
sS'780414'
p1118
I149849
sS'780415'
p1119
I149850
sS'780416'
p1120
I149851
sS'780417'
p1121
I149852
sS'780418'
p1122
I149853
sS'780419'
p1123
I149854
sS'777991'
p1124
I147421
sS'777990'
p1125
I147420
sS'777625'
p1126
I147033
sS'2848391'
p1127
I1425885
sS'779461'
p1128
I148949
sS'779460'
p1129
I148948
sS'779463'
p1130
I148951
sS'779462'
p1131
I148950
sS'779465'
p1132
I148953
sS'779464'
p1133
I148952
sS'779467'
p1134
I148955
sS'779466'
p1135
I148954
sS'779469'
p1136
I148957
sS'779468'
p1137
I148956
sS'777994'
p1138
I147424
sS'2848390'
p1139
I1425884
sS'778952'
p1140
I148433
sS'778953'
p1141
I148434
sS'778950'
p1142
I148431
sS'779267'
p1143
I148749
sS'779266'
p1144
I148748
sS'779265'
p1145
I148747
sS'780097'
p1146
I149601
sS'779263'
p1147
I148745
sS'779262'
p1148
I148744
sS'779261'
p1149
I148743
sS'779260'
p1150
I148742
sS'778956'
p1151
I148437
sS'779269'
p1152
I148751
sS'778957'
p1153
I148438
sS'778022'
p1154
I147453
sS'778023'
p1155
I147454
sS'778020'
p1156
I147451
sS'778021'
p1157
I147452
sS'778026'
p1158
I147457
sS'779688'
p1159
I149183
sS'778024'
p1160
I147455
sS'778025'
p1161
I147456
sS'779685'
p1162
I149180
sS'779684'
p1163
I149179
sS'778028'
p1164
I147459
sS'778029'
p1165
I147460
sS'779681'
p1166
I149176
sS'779680'
p1167
I149175
sS'779683'
p1168
I149178
sS'779682'
p1169
I149177
sS'780155'
p1170
I149662
sS'779519'
p1171
I149009
sS'779518'
p1172
I149008
sS'779048'
p1173
I148530
sS'779047'
p1174
I148529
sS'779514'
p1175
I149004
sS'779517'
p1176
I149007
sS'779044'
p1177
I148528
sS'779043'
p1178
I148527
sS'779042'
p1179
I148526
sS'779041'
p1180
I148525
sS'779040'
p1181
I148524
sS'777919'
p1182
I147342
sS'777918'
p1183
I147341
sS'777913'
p1184
I147336
sS'777912'
p1185
I147335
sS'777911'
p1186
I147334
sS'777910'
p1187
I147333
sS'777917'
p1188
I147340
sS'777916'
p1189
I147339
sS'777915'
p1190
I147338
sS'777914'
p1191
I147337
sS'779191'
p1192
I148672
sS'779190'
p1193
I148671
sS'779193'
p1194
I148674
sS'779192'
p1195
I148673
sS'779195'
p1196
I148676
sS'779194'
p1197
I148675
sS'779197'
p1198
I148678
sS'777570'
p1199
I146976
sS'779199'
p1200
I148680
sS'779198'
p1201
I148679
sS'780152'
p1202
I149659
sS'777573'
p1203
I146980
sS'2848346'
p1204
I1425836
sS'777683'
p1205
I147091
sS'777682'
p1206
I147090
sS'777681'
p1207
I147089
sS'777680'
p1208
I147088
sS'777687'
p1209
I147095
sS'777686'
p1210
I147094
sS'777685'
p1211
I147093
sS'777684'
p1212
I147092
sS'776572'
p1213
I146070
sS'777689'
p1214
I147097
sS'777688'
p1215
I147096
sS'777574'
p1216
I146981
sS'778480'
p1217
I147929
sS'778481'
p1218
I147930
sS'778482'
p1219
I147931
sS'778483'
p1220
I147932
sS'778484'
p1221
I147933
sS'778485'
p1222
I147935
sS'778338'
p1223
I147782
sS'778339'
p1224
I147783
sS'778336'
p1225
I147780
sS'778489'
p1226
I147939
sS'778334'
p1227
I147778
sS'778335'
p1228
I147779
sS'778332'
p1229
I147776
sS'778333'
p1230
I147777
sS'778330'
p1231
I147774
sS'778331'
p1232
I147775
sS'777830'
p1233
I147248
sS'779550'
p1234
I149041
sS'2848344'
p1235
I1425834
sS'778578'
p1236
I148040
sS'777469'
p1237
I146872
sS'777468'
p1238
I146871
sS'777467'
p1239
I146870
sS'777466'
p1240
I146869
sS'777465'
p1241
I146868
sS'777464'
p1242
I146867
sS'777463'
p1243
I146866
sS'777462'
p1244
I146865
sS'777461'
p1245
I146864
sS'777460'
p1246
I146863
sS'778158'
p1247
I147590
sS'778159'
p1248
I147591
sS'778152'
p1249
I147584
sS'778153'
p1250
I147585
sS'778150'
p1251
I147582
sS'778151'
p1252
I147583
sS'778156'
p1253
I147588
sS'778157'
p1254
I147589
sS'778154'
p1255
I147586
sS'778155'
p1256
I147587
sS'777863'
p1257
I147283
sS'777862'
p1258
I147282
sS'777861'
p1259
I147280
sS'777860'
p1260
I147279
sS'777867'
p1261
I147287
sS'777866'
p1262
I147286
sS'777865'
p1263
I147285
sS'777864'
p1264
I147284
sS'777869'
p1265
I147289
sS'777868'
p1266
I147288
sS'778570'
p1267
I148032
sS'778571'
p1268
I148033
sS'776802'
p1269
I146305
sS'778060'
p1270
I147491
sS'778572'
p1271
I148034
sS'778573'
p1272
I148035
sS'2848404'
p1273
I1425898
sS'776879'
p1274
I146382
sS'777269'
p1275
I146655
sS'777268'
p1276
I146654
sS'776878'
p1277
I146381
sS'2848343'
p1278
I1425833
sS'777261'
p1279
I146647
sS'777260'
p1280
I146646
sS'777263'
p1281
I146649
sS'777262'
p1282
I146648
sS'777265'
p1283
I146651
sS'777264'
p1284
I146650
sS'777267'
p1285
I146653
sS'777266'
p1286
I146652
sS'776792'
p1287
I146295
sS'776793'
p1288
I146296
sS'776790'
p1289
I146293
sS'776791'
p1290
I146294
sS'776796'
p1291
I146299
sS'776797'
p1292
I146300
sS'776794'
p1293
I146297
sS'776795'
p1294
I146298
sS'779850'
p1295
I149346
sS'779851'
p1296
I149347
sS'776798'
p1297
I146301
sS'776799'
p1298
I146302
sS'779854'
p1299
I149350
sS'779855'
p1300
I149351
sS'779856'
p1301
I149352
sS'779857'
p1302
I149354
sS'776402'
p1303
I145898
sS'776403'
p1304
I145899
sS'776400'
p1305
I145896
sS'776401'
p1306
I145897
sS'776406'
p1307
I145902
sS'776407'
p1308
I145903
sS'776404'
p1309
I145900
sS'776405'
p1310
I145901
sS'776408'
p1311
I145904
sS'776409'
p1312
I145905
sS'780139'
p1313
I149646
sS'780138'
p1314
I149645
sS'780133'
p1315
I149640
sS'776877'
p1316
I146380
sS'780131'
p1317
I149638
sS'780130'
p1318
I149637
sS'780137'
p1319
I149644
sS'780136'
p1320
I149643
sS'780135'
p1321
I149642
sS'776876'
p1322
I146379
sS'777315'
p1323
I146707
sS'777314'
p1324
I146706
sS'777317'
p1325
I146709
sS'777316'
p1326
I146708
sS'777311'
p1327
I146702
sS'777310'
p1328
I146701
sS'777313'
p1329
I146705
sS'777312'
p1330
I146704
sS'777319'
p1331
I146711
sS'777318'
p1332
I146710
sS'2848112'
p1333
I1425592
sS'2848269'
p1334
I1425756
sS'2848268'
p1335
I1425755
sS'2848261'
p1336
I1425747
sS'2848260'
p1337
I1425746
sS'2848263'
p1338
I1425749
sS'2848262'
p1339
I1425748
sS'2848265'
p1340
I1425751
sS'2848264'
p1341
I1425750
sS'2848267'
p1342
I1425754
sS'2848116'
p1343
I1425596
sS'778927'
p1344
I148408
sS'778926'
p1345
I148407
sS'778925'
p1346
I148406
sS'778924'
p1347
I148405
sS'778923'
p1348
I148404
sS'778922'
p1349
I148403
sS'778921'
p1350
I148402
sS'778920'
p1351
I148401
sS'2848114'
p1352
I1425594
sS'778929'
p1353
I148410
sS'778928'
p1354
I148409
sS'2848319'
p1355
I1425808
sS'2848318'
p1356
I1425807
sS'2848315'
p1357
I1425804
sS'2848314'
p1358
I1425803
sS'778954'
p1359
I148435
sS'2848316'
p1360
I1425805
sS'2848311'
p1361
I1425800
sS'2848310'
p1362
I1425799
sS'2848313'
p1363
I1425802
sS'2848312'
p1364
I1425801
sS'776718'
p1365
I146218
sS'780245'
p1366
I149752
sS'780244'
p1367
I149751
sS'780247'
p1368
I149754
sS'777370'
p1369
I146765
sS'780241'
p1370
I149748
sS'780240'
p1371
I149747
sS'780243'
p1372
I149750
sS'780242'
p1373
I149749
sS'780249'
p1374
I149756
sS'780248'
p1375
I149755
sS'778813'
p1376
I148288
sS'778812'
p1377
I148287
sS'778811'
p1378
I148286
sS'778810'
p1379
I148285
sS'778817'
p1380
I148292
sS'778816'
p1381
I148291
sS'778815'
p1382
I148290
sS'778814'
p1383
I148289
sS'778819'
p1384
I148294
sS'778818'
p1385
I148293
sS'2848286'
p1386
I1425773
sS'780397'
p1387
I149831
sS'780396'
p1388
I149830
sS'780395'
p1389
I149829
sS'776710'
p1390
I146210
sS'780399'
p1391
I149833
sS'776711'
p1392
I146211
sS'776898'
p1393
I146401
sS'2848441'
p1394
I1425938
sS'2848440'
p1395
I1425937
sS'2848443'
p1396
I1425940
sS'2848442'
p1397
I1425939
sS'2848445'
p1398
I1425942
sS'2848444'
p1399
I1425941
sS'2848447'
p1400
I1425944
sS'2848446'
p1401
I1425943
sS'2848449'
p1402
I1425946
sS'2848448'
p1403
I1425945
sS'779902'
p1404
I149401
sS'780409'
p1405
I149843
sS'779903'
p1406
I149402
sS'780407'
p1407
I149841
sS'780406'
p1408
I149840
sS'780405'
p1409
I149839
sS'780404'
p1410
I149838
sS'780403'
p1411
I149837
sS'777177'
p1412
I146558
sS'780401'
p1413
I149835
sS'780400'
p1414
I149834
sS'776365'
p1415
I145861
sS'2848044'
p1416
I1425516
sS'779901'
p1417
I149400
sS'2848041'
p1418
I1425512
sS'2848040'
p1419
I1425511
sS'2848043'
p1420
I1425515
sS'2848042'
p1421
I1425514
sS'779906'
p1422
I149407
sS'2848049'
p1423
I1425521
sS'2848048'
p1424
I1425520
sS'779907'
p1425
I149408
sS'2848178'
p1426
I1425660
sS'779458'
p1427
I148945
sS'779459'
p1428
I148947
sS'779328'
p1429
I148812
sS'779329'
p1430
I148813
sS'779326'
p1431
I148810
sS'779327'
p1432
I148811
sS'779324'
p1433
I148808
sS'779325'
p1434
I148809
sS'779322'
p1435
I148806
sS'779323'
p1436
I148807
sS'779320'
p1437
I148804
sS'779321'
p1438
I148805
sS'2848127'
p1439
I1425607
sS'779908'
p1440
I149410
sS'779909'
p1441
I149411
sS'777179'
p1442
I146560
sS'777178'
p1443
I146559
sS'779212'
p1444
I148693
sS'779213'
p1445
I148694
sS'779210'
p1446
I148691
sS'779211'
p1447
I148692
sS'779216'
p1448
I148697
sS'779217'
p1449
I148698
sS'779214'
p1450
I148695
sS'779215'
p1451
I148696
sS'779218'
p1452
I148699
sS'779219'
p1453
I148700
sS'778031'
p1454
I147462
sS'778030'
p1455
I147461
sS'778033'
p1456
I147464
sS'778032'
p1457
I147463
sS'778035'
p1458
I147466
sS'778034'
p1459
I147465
sS'778037'
p1460
I147468
sS'778036'
p1461
I147467
sS'778039'
p1462
I147470
sS'778038'
p1463
I147469
sS'779679'
p1464
I149174
sS'779528'
p1465
I149018
sS'779529'
p1466
I149019
sS'779038'
p1467
I148521
sS'779039'
p1468
I148523
sS'779520'
p1469
I149010
sS'779521'
p1470
I149011
sS'779522'
p1471
I149012
sS'779031'
p1472
I148514
sS'779036'
p1473
I148519
sS'779037'
p1474
I148520
sS'779034'
p1475
I148517
sS'779035'
p1476
I148518
sS'777766'
p1477
I147176
sS'2848240'
p1478
I1425726
sS'779072'
p1479
I148550
sS'779073'
p1480
I148551
sS'2848027'
p1481
I1425497
sS'778224'
p1482
I147658
sS'777678'
p1483
I147086
sS'777679'
p1484
I147087
sS'777676'
p1485
I147084
sS'777677'
p1486
I147085
sS'777674'
p1487
I147082
sS'777675'
p1488
I147083
sS'777672'
p1489
I147080
sS'777673'
p1490
I147081
sS'777670'
p1491
I147078
sS'777671'
p1492
I147079
sS'779146'
p1493
I148624
sS'779147'
p1494
I148625
sS'779144'
p1495
I148622
sS'779145'
p1496
I148623
sS'779142'
p1497
I148620
sS'779143'
p1498
I148621
sS'778499'
p1499
I147952
sS'778498'
p1500
I147951
sS'778497'
p1501
I147950
sS'778496'
p1502
I147949
sS'778327'
p1503
I147771
sS'778494'
p1504
I147946
sS'778321'
p1505
I147765
sS'778492'
p1506
I147943
sS'778491'
p1507
I147941
sS'778490'
p1508
I147940
sS'779078'
p1509
I148556
sS'2848428'
p1510
I1425922
sS'777283'
p1511
I146670
sS'779079'
p1512
I148557
sS'776379'
p1513
I145875
sS'777418'
p1514
I146818
sS'777419'
p1515
I146819
sS'777281'
p1516
I146668
sS'777412'
p1517
I146812
sS'777413'
p1518
I146813
sS'777410'
p1519
I146810
sS'777411'
p1520
I146811
sS'777416'
p1521
I146816
sS'777417'
p1522
I146817
sS'777414'
p1523
I146814
sS'777415'
p1524
I146815
sS'778149'
p1525
I147581
sS'778148'
p1526
I147580
sS'777788'
p1527
I147199
sS'777789'
p1528
I147200
sS'776375'
p1529
I145871
sS'777782'
p1530
I147193
sS'777783'
p1531
I147194
sS'777780'
p1532
I147191
sS'777781'
p1533
I147192
sS'777786'
p1534
I147197
sS'777787'
p1535
I147198
sS'778147'
p1536
I147579
sS'778146'
p1537
I147578
sS'776377'
p1538
I145873
sS'780151'
p1539
I149658
sS'777898'
p1540
I147318
sS'777899'
p1541
I147320
sS'777896'
p1542
I147316
sS'777897'
p1543
I147317
sS'777894'
p1544
I147314
sS'777895'
p1545
I147315
sS'777892'
p1546
I147312
sS'777893'
p1547
I147313
sS'777890'
p1548
I147310
sS'777891'
p1549
I147311
sS'777289'
p1550
I146677
sS'777288'
p1551
I146676
sS'777526'
p1552
I146932
sS'777527'
p1553
I146933
sS'777256'
p1554
I146642
sS'777257'
p1555
I146643
sS'777250'
p1556
I146636
sS'777523'
p1557
I146929
sS'777520'
p1558
I146926
sS'777521'
p1559
I146927
sS'2848459'
p1560
I1425956
sS'777259'
p1561
I146645
sS'777528'
p1562
I146934
sS'777529'
p1563
I146935
sS'777096'
p1564
I146474
sS'777097'
p1565
I146475
sS'779845'
p1566
I149342
sS'777095'
p1567
I146473
sS'779843'
p1568
I149340
sS'779842'
p1569
I149339
sS'779841'
p1570
I149338
sS'779840'
p1571
I149337
sS'776622'
p1572
I146122
sS'779844'
p1573
I149341
sS'779849'
p1574
I149345
sS'779848'
p1575
I149344
sS'776781'
p1576
I146284
sS'776780'
p1577
I146283
sS'776783'
p1578
I146286
sS'776782'
p1579
I146285
sS'776785'
p1580
I146288
sS'776784'
p1581
I146287
sS'776787'
p1582
I146290
sS'776786'
p1583
I146289
sS'776789'
p1584
I146292
sS'776788'
p1585
I146291
sS'776621'
p1586
I146121
sS'776411'
p1587
I145908
sS'776410'
p1588
I145906
sS'776413'
p1589
I145910
sS'776412'
p1590
I145909
sS'776415'
p1591
I145912
sS'776414'
p1592
I145911
sS'776417'
p1593
I145914
sS'776416'
p1594
I145913
sS'776419'
p1595
I145916
sS'776418'
p1596
I145915
sS'2848089'
p1597
I1425565
sS'779978'
p1598
I149478
sS'777320'
p1599
I146712
sS'777321'
p1600
I146713
sS'777322'
p1601
I146714
sS'777323'
p1602
I146715
sS'777324'
p1603
I146717
sS'777325'
p1604
I146718
sS'777326'
p1605
I146719
sS'777327'
p1606
I146721
sS'777328'
p1607
I146722
sS'777329'
p1608
I146723
sS'776629'
p1609
I146129
sS'2848088'
p1610
I1425563
sS'776464'
p1611
I145962
sS'780094'
p1612
I149598
sS'780095'
p1613
I149599
sS'780096'
p1614
I149600
sS'778951'
p1615
I148432
sS'780090'
p1616
I149594
sS'780091'
p1617
I149595
sS'780092'
p1618
I149596
sS'778955'
p1619
I148436
sS'778958'
p1620
I148439
sS'778959'
p1621
I148440
sS'780098'
p1622
I149602
sS'780099'
p1623
I149603
sS'2848420'
p1624
I1425914
sS'2848053'
p1625
I1425526
sS'2848308'
p1626
I1425796
sS'2848309'
p1627
I1425798
sS'2848302'
p1628
I1425790
sS'2848303'
p1629
I1425791
sS'2848300'
p1630
I1425788
sS'2848301'
p1631
I1425789
sS'2848306'
p1632
I1425794
sS'778194'
p1633
I147628
sS'2848304'
p1634
I1425792
sS'2848305'
p1635
I1425793
sS'776368'
p1636
I145864
sS'780270'
p1637
I149777
sS'780271'
p1638
I149778
sS'780272'
p1639
I149779
sS'780273'
p1640
I149780
sS'780274'
p1641
I149781
sS'780275'
p1642
I149782
sS'780276'
p1643
I149783
sS'780277'
p1644
I149784
sS'780278'
p1645
I149785
sS'780279'
p1646
I149786
sS'2848485'
p1647
I1425983
sS'2848276'
p1648
I1425763
sS'2848277'
p1649
I1425764
sS'2848274'
p1650
I1425761
sS'2848275'
p1651
I1425762
sS'2848272'
p1652
I1425759
sS'2848273'
p1653
I1425760
sS'2848270'
p1654
I1425757
sS'2848271'
p1655
I1425758
sS'2848546'
p1656
I1426045
sS'2848278'
p1657
I1425765
sS'2848279'
p1658
I1425766
sS'778756'
p1659
I148229
sS'778431'
p1660
I147876
sS'778757'
p1661
I148230
sS'778758'
p1662
I148231
sS'2848458'
p1663
I1425955
sS'778207'
p1664
I147641
sS'2848456'
p1665
I1425953
sS'2848457'
p1666
I1425954
sS'2848454'
p1667
I1425951
sS'2848455'
p1668
I1425952
sS'2848452'
p1669
I1425949
sS'2848453'
p1670
I1425950
sS'2848450'
p1671
I1425947
sS'2848451'
p1672
I1425948
sS'779999'
p1673
I149499
sS'780478'
p1674
I149916
sS'780479'
p1675
I149918
sS'776652'
p1676
I146151
sS'780472'
p1677
I149909
sS'780473'
p1678
I149910
sS'780470'
p1679
I149907
sS'780471'
p1680
I149908
sS'780476'
p1681
I149914
sS'780477'
p1682
I149915
sS'780474'
p1683
I149911
sS'780475'
p1684
I149912
sS'2848052'
p1685
I1425525
sS'779443'
p1686
I148929
sS'2848050'
p1687
I1425523
sS'2848051'
p1688
I1425524
sS'2848056'
p1689
I1425530
sS'2848057'
p1690
I1425531
sS'2848054'
p1691
I1425527
sS'779442'
p1692
I148928
sS'2848058'
p1693
I1425532
sS'2848059'
p1694
I1425533
sS'779337'
p1695
I148821
sS'779449'
p1696
I148935
sS'779448'
p1697
I148934
sS'779339'
p1698
I148823
sS'779338'
p1699
I148822
sS'779335'
p1700
I148819
sS'779334'
p1701
I148818
sS'779441'
p1702
I148927
sS'779440'
p1703
I148926
sS'779331'
p1704
I148815
sS'779330'
p1705
I148814
sS'779445'
p1706
I148931
sS'779332'
p1707
I148816
sS'779333'
p1708
I148817
sS'779444'
p1709
I148930
sS'779993'
p1710
I149493
sS'779992'
p1711
I149492
sS'779201'
p1712
I148682
sS'779200'
p1713
I148681
sS'779203'
p1714
I148684
sS'779202'
p1715
I148683
sS'779205'
p1716
I148686
sS'779204'
p1717
I148685
sS'779207'
p1718
I148688
sS'779206'
p1719
I148687
sS'779209'
p1720
I148690
sS'779208'
p1721
I148689
sS'777837'
p1722
I147255
sS'779537'
p1723
I149028
sS'779536'
p1724
I149027
sS'779535'
p1725
I149025
sS'779534'
p1726
I149024
sS'778008'
p1727
I147439
sS'779532'
p1728
I149022
sS'778558'
p1729
I148019
sS'778559'
p1730
I148020
sS'778004'
p1731
I147434
sS'778005'
p1732
I147435
sS'778006'
p1733
I147436
sS'778555'
p1734
I148016
sS'778000'
p1735
I147430
sS'778553'
p1736
I148014
sS'778002'
p1737
I147432
sS'778003'
p1738
I147433
sS'779029'
p1739
I148512
sS'779028'
p1740
I148511
sS'2848396'
p1741
I1425890
sS'779021'
p1742
I148504
sS'779020'
p1743
I148503
sS'779023'
p1744
I148506
sS'779022'
p1745
I148505
sS'779025'
p1746
I148508
sS'779024'
p1747
I148507
sS'779027'
p1748
I148510
sS'779026'
p1749
I148509
sS'2848393'
p1750
I1425887
sS'777646'
p1751
I147054
sS'2848392'
p1752
I1425886
sS'777645'
p1753
I147053
sS'777644'
p1754
I147052
sS'777643'
p1755
I147051
sS'777642'
p1756
I147050
sS'780206'
p1757
I149713
sS'777604'
p1758
I147012
sS'777669'
p1759
I147077
sS'777668'
p1760
I147076
sS'777665'
p1761
I147073
sS'777664'
p1762
I147072
sS'777667'
p1763
I147075
sS'777666'
p1764
I147074
sS'777661'
p1765
I147069
sS'777660'
p1766
I147068
sS'777663'
p1767
I147071
sS'777662'
p1768
I147070
sS'778318'
p1769
I147762
sS'779154'
p1770
I148632
sS'779157'
p1771
I148635
sS'779156'
p1772
I148634
sS'779151'
p1773
I148629
sS'779150'
p1774
I148628
sS'779153'
p1775
I148631
sS'779152'
p1776
I148630
sS'778310'
p1777
I147753
sS'778311'
p1778
I147754
sS'778312'
p1779
I147755
sS'778313'
p1780
I147756
sS'779159'
p1781
I148637
sS'779158'
p1782
I148636
sS'778316'
p1783
I147760
sS'778317'
p1784
I147761
sS'2848514'
p1785
I1426012
sS'778798'
p1786
I148273
sS'778799'
p1787
I148274
sS'778794'
p1788
I148269
sS'778795'
p1789
I148270
sS'778796'
p1790
I148271
sS'778797'
p1791
I148272
sS'778790'
p1792
I148265
sS'778791'
p1793
I148266
sS'778792'
p1794
I148267
sS'778793'
p1795
I148268
sS'777409'
p1796
I146809
sS'777456'
p1797
I146858
sS'778176'
p1798
I147609
sS'778177'
p1799
I147611
sS'778170'
p1800
I147603
sS'778171'
p1801
I147604
sS'778172'
p1802
I147605
sS'777457'
p1803
I146859
sS'777401'
p1804
I146800
sS'777400'
p1805
I146799
sS'777403'
p1806
I146803
sS'777402'
p1807
I146801
sS'777405'
p1808
I146805
sS'777454'
p1809
I146856
sS'777407'
p1810
I146807
sS'777406'
p1811
I146806
sS'778776'
p1812
I148250
sS'778777'
p1813
I148251
sS'778774'
p1814
I148248
sS'777455'
p1815
I146857
sS'778772'
p1816
I148246
sS'778773'
p1817
I148247
sS'778770'
p1818
I148244
sS'778771'
p1819
I148245
sS'777791'
p1820
I147202
sS'777452'
p1821
I146854
sS'777793'
p1822
I147204
sS'777792'
p1823
I147203
sS'777795'
p1824
I147206
sS'777794'
p1825
I147205
sS'778778'
p1826
I148252
sS'777453'
p1827
I146855
sS'777889'
p1828
I147309
sS'777450'
p1829
I146852
sS'777885'
p1830
I147305
sS'777884'
p1831
I147304
sS'777887'
p1832
I147307
sS'777886'
p1833
I147306
sS'777881'
p1834
I147301
sS'777880'
p1835
I147300
sS'777883'
p1836
I147303
sS'777882'
p1837
I147302
sS'776465'
p1838
I145963
sS'776364'
p1839
I145860
sS'778329'
p1840
I147773
sS'777243'
p1841
I146629
sS'776339'
p1842
I145834
sS'777537'
p1843
I146943
sS'777536'
p1844
I146942
sS'777247'
p1845
I146633
sS'777530'
p1846
I146936
sS'777245'
p1847
I146631
sS'777244'
p1848
I146630
sS'776451'
p1849
I145948
sS'777249'
p1850
I146635
sS'777248'
p1851
I146634
sS'777539'
p1852
I146945
sS'776335'
p1853
I145830
sS'776336'
p1854
I145831
sS'776337'
p1855
I145832
sS'779832'
p1856
I149328
sS'779833'
p1857
I149329
sS'779830'
p1858
I149326
sS'779831'
p1859
I149327
sS'778328'
p1860
I147772
sS'777458'
p1861
I146861
sS'779834'
p1862
I149330
sS'779835'
p1863
I149331
sS'779838'
p1864
I149335
sS'777459'
p1865
I146862
sS'779437'
p1866
I148923
sS'776428'
p1867
I145925
sS'776429'
p1868
I145926
sS'776938'
p1869
I146442
sS'776939'
p1870
I146443
sS'776936'
p1871
I146440
sS'776425'
p1872
I145922
sS'776934'
p1873
I146438
sS'776935'
p1874
I146439
sS'776932'
p1875
I146435
sS'776933'
p1876
I146436
sS'776930'
p1877
I146433
sS'776423'
p1878
I145920
sS'776756'
p1879
I146258
sS'776757'
p1880
I146259
sS'776754'
p1881
I146255
sS'776755'
p1882
I146257
sS'776752'
p1883
I146253
sS'776753'
p1884
I146254
sS'776750'
p1885
I146251
sS'776751'
p1886
I146252
sS'779228'
p1887
I148709
sS'776758'
p1888
I146260
sS'776759'
p1889
I146261
sS'777339'
p1890
I146733
sS'777338'
p1891
I146732
sS'777337'
p1892
I146731
sS'779533'
p1893
I149023
sS'777335'
p1894
I146729
sS'777334'
p1895
I146728
sS'777333'
p1896
I146727
sS'777332'
p1897
I146726
sS'777331'
p1898
I146725
sS'778009'
p1899
I147440
sS'779531'
p1900
I149021
sS'779948'
p1901
I149449
sS'779949'
p1902
I149450
sS'779947'
p1903
I149448
sS'777113'
p1904
I146491
sS'779530'
p1905
I149020
sS'779942'
p1906
I149443
sS'779943'
p1907
I149444
sS'778325'
p1908
I147769
sS'779941'
p1909
I149442
sS'776688'
p1910
I146188
sS'776689'
p1911
I146189
sS'778557'
p1912
I148018
sS'776680'
p1913
I146180
sS'776681'
p1914
I146181
sS'776682'
p1915
I146182
sS'776683'
p1916
I146183
sS'776684'
p1917
I146184
sS'776685'
p1918
I146185
sS'776686'
p1919
I146186
sS'776687'
p1920
I146187
sS'778295'
p1921
I147734
sS'778294'
p1922
I147733
sS'777112'
p1923
I146490
sS'778552'
p1924
I148013
sS'2848327'
p1925
I1425817
sS'778324'
p1926
I147768
sS'778297'
p1927
I147737
sS'778001'
p1928
I147431
sS'778941'
p1929
I148422
sS'778940'
p1930
I148421
sS'778943'
p1931
I148424
sS'776852'
p1932
I146355
sS'778945'
p1933
I148426
sS'778550'
p1934
I148011
sS'778947'
p1935
I148428
sS'780084'
p1936
I149588
sS'778949'
p1937
I148430
sS'776855'
p1938
I146358
sS'780089'
p1939
I149593
sS'779538'
p1940
I149029
sS'778408'
p1941
I147853
sS'776854'
p1942
I146357
sS'776857'
p1943
I146360
sS'778292'
p1944
I147731
sS'779382'
p1945
I148867
sS'778409'
p1946
I147854
sS'779438'
p1947
I148924
sS'2848519'
p1948
I1426018
sS'2848518'
p1949
I1426017
sS'778326'
p1950
I147770
sS'2848516'
p1951
I1426015
sS'2848515'
p1952
I1426014
sS'779439'
p1953
I148925
sS'2848513'
p1954
I1426011
sS'2848512'
p1955
I1426010
sS'2848511'
p1956
I1426009
sS'2848510'
p1957
I1426008
sS'779436'
p1958
I148922
sS'2848172'
p1959
I1425654
sS'780269'
p1960
I149776
sS'780268'
p1961
I149775
sS'780267'
p1962
I149774
sS'780265'
p1963
I149772
sS'780264'
p1964
I149771
sS'780263'
p1965
I149770
sS'780262'
p1966
I149769
sS'780261'
p1967
I149768
sS'780260'
p1968
I149767
sS'2848193'
p1969
I1425676
sS'776521'
p1970
I146019
sS'2848191'
p1971
I1425673
sS'2848190'
p1972
I1425672
sS'2848119'
p1973
I1425599
sS'2848196'
p1974
I1425679
sS'2848195'
p1975
I1425678
sS'776520'
p1976
I146018
sS'2848199'
p1977
I1425682
sS'2848198'
p1978
I1425681
sS'777858'
p1979
I147277
sS'2848189'
p1980
I1425671
sS'2848203'
p1981
I1425686
sS'2848202'
p1982
I1425685
sS'2848201'
p1983
I1425684
sS'777859'
p1984
I147278
sS'2848207'
p1985
I1425690
sS'2848206'
p1986
I1425689
sS'2848205'
p1987
I1425688
sS'2848071'
p1988
I1425546
sS'778381'
p1989
I147826
sS'2848208'
p1990
I1425691
sS'2848118'
p1991
I1425598
sS'2848073'
p1992
I1425548
sS'776818'
p1993
I146321
sS'777852'
p1994
I147271
sS'776624'
p1995
I146124
sS'2848136'
p1996
I1425616
sS'777853'
p1997
I147272
sS'2848423'
p1998
I1425917
sS'2848422'
p1999
I1425916
sS'2848421'
p2000
I1425915
sS'2848077'
p2001
I1425552
sS'2848427'
p2002
I1425921
sS'777582'
p2003
I146989
sS'2848425'
p2004
I1425919
sS'2848424'
p2005
I1425918
sS'780469'
p2006
I149906
sS'780468'
p2007
I149905
sS'778323'
p2008
I147767
sS'776913'
p2009
I146416
sS'780461'
p2010
I149897
sS'777856'
p2011
I147275
sS'780463'
p2012
I149899
sS'780462'
p2013
I149898
sS'780465'
p2014
I149902
sS'780464'
p2015
I149900
sS'780467'
p2016
I149904
sS'777857'
p2017
I147276
sS'2848163'
p2018
I1425645
sS'777854'
p2019
I147273
sS'777587'
p2020
I146995
sS'780253'
p2021
I149760
sS'778322'
p2022
I147766
sS'779309'
p2023
I148793
sS'779300'
p2024
I148784
sS'779301'
p2025
I148785
sS'779302'
p2026
I148786
sS'779303'
p2027
I148787
sS'779304'
p2028
I148788
sS'779305'
p2029
I148789
sS'779306'
p2030
I148790
sS'779307'
p2031
I148791
sS'776459'
p2032
I145956
sS'776777'
p2033
I146280
sS'776458'
p2034
I145955
sS'779238'
p2035
I148720
sS'779239'
p2036
I148721
sS'779336'
p2037
I148820
sS'779234'
p2038
I148716
sS'779235'
p2039
I148717
sS'779236'
p2040
I148718
sS'779230'
p2041
I148711
sS'779231'
p2042
I148712
sS'779232'
p2043
I148714
sS'779233'
p2044
I148715
sS'779014'
p2045
I148497
sS'779015'
p2046
I148498
sS'778019'
p2047
I147450
sS'779017'
p2048
I148500
sS'779546'
p2049
I149037
sS'779547'
p2050
I149038
sS'779012'
p2051
I148494
sS'779013'
p2052
I148496
sS'778013'
p2053
I147444
sS'778544'
p2054
I148005
sS'779548'
p2055
I149039
sS'779549'
p2056
I149040
sS'778541'
p2057
I148002
sS'778540'
p2058
I148001
sS'778015'
p2059
I147446
sS'778014'
p2060
I147445
sS'779784'
p2061
I149282
sS'779785'
p2062
I149283
sS'779786'
p2063
I149284
sS'779787'
p2064
I149285
sS'779780'
p2065
I149278
sS'779781'
p2066
I149279
sS'777119'
p2067
I146497
sS'779783'
p2068
I149281
sS'779788'
p2069
I149286
sS'779789'
p2070
I149287
sS'778697'
p2071
I148170
sS'777658'
p2072
I147066
sS'777659'
p2073
I147067
sS'778304'
p2074
I147745
sS'778303'
p2075
I147744
sS'778302'
p2076
I147742
sS'778301'
p2077
I147741
sS'778300'
p2078
I147740
sS'777650'
p2079
I147058
sS'777651'
p2080
I147059
sS'777652'
p2081
I147060
sS'777653'
p2082
I147061
sS'777654'
p2083
I147062
sS'777655'
p2084
I147063
sS'777656'
p2085
I147064
sS'777657'
p2086
I147065
sS'779160'
p2087
I148638
sS'779161'
p2088
I148639
sS'779162'
p2089
I148640
sS'778700'
p2090
I148173
sS'779164'
p2091
I148642
sS'779165'
p2092
I148643
sS'779166'
p2093
I148644
sS'779167'
p2094
I148646
sS'779168'
p2095
I148647
sS'778707'
p2096
I148180
sS'778706'
p2097
I148179
sS'779490'
p2098
I148979
sS'779491'
p2099
I148980
sS'779492'
p2100
I148981
sS'779493'
p2101
I148982
sS'779494'
p2102
I148983
sS'779495'
p2103
I148984
sS'779496'
p2104
I148985
sS'779497'
p2105
I148986
sS'779498'
p2106
I148987
sS'779499'
p2107
I148988
sS'778704'
p2108
I148177
sS'778789'
p2109
I148264
sS'778788'
p2110
I148263
sS'778783'
p2111
I148257
sS'778782'
p2112
I148256
sS'778781'
p2113
I148255
sS'778780'
p2114
I148254
sS'778787'
p2115
I148261
sS'778786'
p2116
I148260
sS'778785'
p2117
I148259
sS'778784'
p2118
I148258
sS'778163'
p2119
I147595
sS'778162'
p2120
I147594
sS'778161'
p2121
I147593
sS'778160'
p2122
I147592
sS'778167'
p2123
I147600
sS'778166'
p2124
I147599
sS'778165'
p2125
I147598
sS'778164'
p2126
I147597
sS'778169'
p2127
I147602
sS'778168'
p2128
I147601
sS'778765'
p2129
I148239
sS'778764'
p2130
I148238
sS'778767'
p2131
I148241
sS'778766'
p2132
I148240
sS'778761'
p2133
I148234
sS'778760'
p2134
I148233
sS'778763'
p2135
I148237
sS'778762'
p2136
I148236
sS'778769'
p2137
I148243
sS'778768'
p2138
I148242
sS'779155'
p2139
I148633
sS'778319'
p2140
I147763
sS'778091'
p2141
I147523
sS'778090'
p2142
I147522
sS'2848494'
p2143
I1425992
sS'777500'
p2144
I146906
sS'777501'
p2145
I146907
sS'777502'
p2146
I146908
sS'777503'
p2147
I146909
sS'777504'
p2148
I146910
sS'777505'
p2149
I146911
sS'777506'
p2150
I146912
sS'777507'
p2151
I146913
sS'777508'
p2152
I146914
sS'777509'
p2153
I146915
sS'2848115'
p2154
I1425595
sS'779821'
p2155
I149319
sS'779820'
p2156
I149318
sS'779825'
p2157
I149321
sS'779824'
p2158
I149320
sS'779827'
p2159
I149323
sS'779826'
p2160
I149322
sS'779829'
p2161
I149325
sS'779828'
p2162
I149324
sS'778099'
p2163
I147531
sS'776450'
p2164
I145947
sS'776373'
p2165
I145869
sS'778098'
p2166
I147530
sS'778314'
p2167
I147757
sS'778315'
p2168
I147759
sS'777434'
p2169
I146835
sS'777435'
p2170
I146836
sS'777436'
p2171
I146837
sS'777437'
p2172
I146838
sS'777430'
p2173
I146831
sS'777431'
p2174
I146832
sS'777432'
p2175
I146833
sS'777433'
p2176
I146834
sS'776433'
p2177
I145930
sS'776924'
p2178
I146427
sS'776431'
p2179
I145928
sS'776430'
p2180
I145927
sS'776437'
p2181
I145934
sS'776920'
p2182
I146423
sS'776923'
p2183
I146426
sS'776922'
p2184
I146425
sS'776745'
p2185
I146246
sS'776744'
p2186
I146245
sS'776747'
p2187
I146248
sS'776746'
p2188
I146247
sS'776741'
p2189
I146242
sS'776740'
p2190
I146241
sS'776743'
p2191
I146244
sS'776742'
p2192
I146243
sS'776749'
p2193
I146250
sS'776748'
p2194
I146249
sS'777348'
p2195
I146742
sS'777349'
p2196
I146743
sS'777342'
p2197
I146736
sS'777343'
p2198
I146737
sS'777340'
p2199
I146734
sS'777341'
p2200
I146735
sS'777346'
p2201
I146740
sS'777347'
p2202
I146741
sS'777344'
p2203
I146738
sS'777345'
p2204
I146739
sS'776697'
p2205
I146197
sS'776696'
p2206
I146196
sS'776695'
p2207
I146195
sS'776694'
p2208
I146194
sS'779959'
p2209
I149460
sS'779958'
p2210
I149459
sS'776691'
p2211
I146191
sS'776690'
p2212
I146190
sS'779955'
p2213
I149456
sS'779954'
p2214
I149455
sS'779957'
p2215
I149458
sS'779956'
p2216
I149457
sS'779951'
p2217
I149452
sS'779950'
p2218
I149451
sS'776699'
p2219
I146199
sS'779952'
p2220
I149453
sS'780158'
p2221
I149665
sS'777982'
p2222
I147412
sS'778451'
p2223
I147897
sS'778978'
p2224
I148459
sS'778979'
p2225
I148460
sS'780078'
p2226
I149582
sS'780079'
p2227
I149583
sS'780076'
p2228
I149580
sS'780077'
p2229
I149581
sS'780074'
p2230
I149578
sS'780075'
p2231
I149579
sS'780072'
p2232
I149576
sS'780073'
p2233
I149577
sS'780070'
p2234
I149574
sS'780071'
p2235
I149575
sS'778417'
p2236
I147862
sS'778340'
p2237
I147784
sS'779852'
p2238
I149348
sS'2848508'
p2239
I1426006
sS'2848509'
p2240
I1426007
sS'2848504'
p2241
I1426002
sS'2848505'
p2242
I1426003
sS'2848506'
p2243
I1426004
sS'2848507'
p2244
I1426005
sS'2848500'
p2245
I1425998
sS'2848501'
p2246
I1425999
sS'2848502'
p2247
I1426000
sS'776929'
p2248
I146432
sS'780218'
p2249
I149725
sS'780219'
p2250
I149726
sS'780212'
p2251
I149719
sS'780213'
p2252
I149720
sS'780210'
p2253
I149717
sS'780211'
p2254
I149718
sS'780216'
p2255
I149723
sS'780217'
p2256
I149724
sS'780214'
p2257
I149721
sS'780215'
p2258
I149722
sS'2848180'
p2259
I1425662
sS'2848181'
p2260
I1425663
sS'780188'
p2261
I149695
sS'780189'
p2262
I149696
sS'777695'
p2263
I147103
sS'2848185'
p2264
I1425667
sS'2848186'
p2265
I1425668
sS'2848187'
p2266
I1425669
sS'2848188'
p2267
I1425670
sS'780183'
p2268
I149691
sS'780180'
p2269
I149688
sS'780181'
p2270
I149689
sS'780007'
p2271
I149507
sS'2848211'
p2272
I1425694
sS'2848212'
p2273
I1425695
sS'2848213'
p2274
I1425696
sS'2848214'
p2275
I1425697
sS'778419'
p2276
I147864
sS'2848216'
p2277
I1425699
sS'2848217'
p2278
I1425700
sS'2848218'
p2279
I1425701
sS'2848219'
p2280
I1425702
sS'778418'
p2281
I147863
sS'778174'
p2282
I147607
sS'2848055'
p2283
I1425529
sS'777408'
p2284
I146808
sS'779652'
p2285
I149143
sS'780006'
p2286
I149506
sS'780454'
p2287
I149889
sS'780455'
p2288
I149890
sS'780456'
p2289
I149891
sS'780457'
p2290
I149892
sS'780450'
p2291
I149885
sS'780451'
p2292
I149886
sS'780452'
p2293
I149887
sS'780453'
p2294
I149888
sS'2848430'
p2295
I1425924
sS'2848431'
p2296
I1425925
sS'2848432'
p2297
I1425926
sS'2848433'
p2298
I1425927
sS'780458'
p2299
I149893
sS'780459'
p2300
I149894
sS'2848436'
p2301
I1425932
sS'2848437'
p2302
I1425933
sS'778960'
p2303
I148441
sS'2848553'
p2304
I1426052
sS'778173'
p2305
I147606
sS'780005'
p2306
I149505
sS'778966'
p2307
I148447
sS'778996'
p2308
I148477
sS'778997'
p2309
I148478
sS'778994'
p2310
I148475
sS'778995'
p2311
I148476
sS'778992'
p2312
I148473
sS'778993'
p2313
I148474
sS'778990'
p2314
I148471
sS'778991'
p2315
I148472
sS'778964'
p2316
I148445
sS'778998'
p2317
I148479
sS'778999'
p2318
I148480
sS'778439'
p2319
I147884
sS'778178'
p2320
I147612
sS'780004'
p2321
I149504
sS'777404'
p2322
I146804
sS'777832'
p2323
I147250
sS'777576'
p2324
I146983
sS'778438'
p2325
I147883
sS'777799'
p2326
I147210
sS'777798'
p2327
I147209
sS'779229'
p2328
I148710
sS'778775'
p2329
I148249
sS'779223'
p2330
I148704
sS'779222'
p2331
I148703
sS'779221'
p2332
I148702
sS'779220'
p2333
I148701
sS'779227'
p2334
I148708
sS'779226'
p2335
I148707
sS'779225'
p2336
I148706
sS'779224'
p2337
I148705
sS'779003'
p2338
I148484
sS'778579'
p2339
I148041
sS'779001'
p2340
I148482
sS'779000'
p2341
I148481
sS'779555'
p2342
I149046
sS'779006'
p2343
I148487
sS'779005'
p2344
I148486
sS'779004'
p2345
I148485
sS'779559'
p2346
I149050
sS'779558'
p2347
I149049
sS'779009'
p2348
I148491
sS'779008'
p2349
I148489
sS'778574'
p2350
I148036
sS'778575'
p2351
I148037
sS'778576'
p2352
I148038
sS'778577'
p2353
I148039
sS'779793'
p2354
I149291
sS'779792'
p2355
I149290
sS'779791'
p2356
I149289
sS'779790'
p2357
I149288
sS'779797'
p2358
I149295
sS'779796'
p2359
I149294
sS'779795'
p2360
I149293
sS'779794'
p2361
I149292
sS'779799'
p2362
I149297
sS'779798'
p2363
I149296
sS'776627'
p2364
I146127
sS'778356'
p2365
I147800
sS'777810'
p2366
I147225
sS'779002'
p2367
I148483
sS'779316'
p2368
I148800
sS'779315'
p2369
I148799
sS'779314'
p2370
I148798
sS'779313'
p2371
I148797
sS'779312'
p2372
I148796
sS'779311'
p2373
I148795
sS'779310'
p2374
I148794
sS'778779'
p2375
I148253
sS'779319'
p2376
I148803
sS'779318'
p2377
I148802
sS'778372'
p2378
I147817
sS'778373'
p2379
I147818
sS'778370'
p2380
I147815
sS'778371'
p2381
I147816
sS'778376'
p2382
I147821
sS'778377'
p2383
I147822
sS'778374'
p2384
I147819
sS'778375'
p2385
I147820
sS'777836'
p2386
I147254
sS'778378'
p2387
I147823
sS'778379'
p2388
I147824
sS'776949'
p2389
I146453
sS'779676'
p2390
I149171
sS'776948'
p2391
I146452
sS'779179'
p2392
I148658
sS'779178'
p2393
I148657
sS'779177'
p2394
I148656
sS'779176'
p2395
I148655
sS'779175'
p2396
I148654
sS'779174'
p2397
I148653
sS'779173'
p2398
I148652
sS'779172'
p2399
I148651
sS'779171'
p2400
I148650
sS'777888'
p2401
I147308
sS'779853'
p2402
I149349
sS'778389'
p2403
I147834
sS'779489'
p2404
I148978
sS'779488'
p2405
I148977
sS'779487'
p2406
I148976
sS'779486'
p2407
I148975
sS'779485'
p2408
I148974
sS'779484'
p2409
I148973
sS'779483'
p2410
I148972
sS'779482'
p2411
I148971
sS'779481'
p2412
I148970
sS'779480'
p2413
I148969
sS'778067'
p2414
I147498
sS'778387'
p2415
I147832
sS'778437'
p2416
I147882
sS'778386'
p2417
I147831
sS'776941'
p2418
I146445
sS'777499'
p2419
I146905
sS'778198'
p2420
I147632
sS'778199'
p2421
I147633
sS'778196'
p2422
I147630
sS'778197'
p2423
I147631
sS'779007'
p2424
I148488
sS'778195'
p2425
I147629
sS'778192'
p2426
I147626
sS'778193'
p2427
I147627
sS'778190'
p2428
I147624
sS'778191'
p2429
I147625
sS'778750'
p2430
I148223
sS'778751'
p2431
I148224
sS'778752'
p2432
I148225
sS'778753'
p2433
I148226
sS'778754'
p2434
I148227
sS'778755'
p2435
I148228
sS'778208'
p2436
I147642
sS'778209'
p2437
I147643
sS'778206'
p2438
I147640
sS'778759'
p2439
I148232
sS'778204'
p2440
I147638
sS'778205'
p2441
I147639
sS'778202'
p2442
I147636
sS'778203'
p2443
I147637
sS'778200'
p2444
I147634
sS'778201'
p2445
I147635
sS'2848165'
p2446
I1425647
sS'779743'
p2447
I149240
sS'779744'
p2448
I149241
sS'778065'
p2449
I147496
sS'779297'
p2450
I148781
sS'777647'
p2451
I147055
sS'778683'
p2452
I148156
sS'778680'
p2453
I148153
sS'778681'
p2454
I148154
sS'778686'
p2455
I148159
sS'778687'
p2456
I148160
sS'777641'
p2457
I147049
sS'777640'
p2458
I147048
sS'778688'
p2459
I148161
sS'778689'
p2460
I148162
sS'777649'
p2461
I147057
sS'777648'
p2462
I147056
sS'776594'
p2463
I146092
sS'776595'
p2464
I146093
sS'776596'
p2465
I146094
sS'776597'
p2466
I146095
sS'776590'
p2467
I146088
sS'776591'
p2468
I146089
sS'776592'
p2469
I146090
sS'777518'
p2470
I146924
sS'777517'
p2471
I146923
sS'777516'
p2472
I146922
sS'777515'
p2473
I146921
sS'777514'
p2474
I146920
sS'776598'
p2475
I146096
sS'777512'
p2476
I146918
sS'777511'
p2477
I146917
sS'777510'
p2478
I146916
sS'779818'
p2479
I149316
sS'779819'
p2480
I149317
sS'779814'
p2481
I149312
sS'779815'
p2482
I149313
sS'779816'
p2483
I149314
sS'779817'
p2484
I149315
sS'779810'
p2485
I149308
sS'779811'
p2486
I149309
sS'779812'
p2487
I149310
sS'779813'
p2488
I149311
sS'778063'
p2489
I147494
sS'779953'
p2490
I149454
sS'777423'
p2491
I146823
sS'777422'
p2492
I146822
sS'777421'
p2493
I146821
sS'777420'
p2494
I146820
sS'777427'
p2495
I146827
sS'777426'
p2496
I146826
sS'777425'
p2497
I146825
sS'777424'
p2498
I146824
sS'778549'
p2499
I148010
sS'776911'
p2500
I146414
sS'776912'
p2501
I146415
sS'777428'
p2502
I146828
sS'776914'
p2503
I146417
sS'776915'
p2504
I146418
sS'776916'
p2505
I146419
sS'776917'
p2506
I146420
sS'776770'
p2507
I146273
sS'776771'
p2508
I146274
sS'776772'
p2509
I146275
sS'776773'
p2510
I146276
sS'776774'
p2511
I146277
sS'776775'
p2512
I146278
sS'776776'
p2513
I146279
sS'777242'
p2514
I146628
sS'776778'
p2515
I146281
sS'776779'
p2516
I146282
sS'777241'
p2517
I146627
sS'777359'
p2518
I146753
sS'777358'
p2519
I146752
sS'777240'
p2520
I146626
sS'777351'
p2521
I146745
sS'777531'
p2522
I146937
sS'777353'
p2523
I146747
sS'777352'
p2524
I146746
sS'777355'
p2525
I146749
sS'777354'
p2526
I146748
sS'777357'
p2527
I146751
sS'777356'
p2528
I146750
sS'779968'
p2529
I149468
sS'779969'
p2530
I149469
sS'779189'
p2531
I148670
sS'778061'
p2532
I147492
sS'777533'
p2533
I146939
sS'779961'
p2534
I149462
sS'779962'
p2535
I149463
sS'779963'
p2536
I149464
sS'779966'
p2537
I149466
sS'779967'
p2538
I149467
sS'776353'
p2539
I145848
sS'776350'
p2540
I145845
sS'779264'
p2541
I148746
sS'776356'
p2542
I145851
sS'776357'
p2543
I145852
sS'776354'
p2544
I145849
sS'776355'
p2545
I145850
sS'776358'
p2546
I145853
sS'776359'
p2547
I145854
sS'778961'
p2548
I148442
sS'776372'
p2549
I145868
sS'777538'
p2550
I146944
sS'778969'
p2551
I148450
sS'778968'
p2552
I148449
sS'780069'
p2553
I149573
sS'780068'
p2554
I149572
sS'780065'
p2555
I149569
sS'780064'
p2556
I149568
sS'780067'
p2557
I149571
sS'780066'
p2558
I149570
sS'778967'
p2559
I148448
sS'780060'
p2560
I149564
sS'780063'
p2561
I149567
sS'780062'
p2562
I149566
sS'777128'
p2563
I146506
sS'778545'
p2564
I148006
sS'2848130'
p2565
I1425610
sS'777129'
p2566
I146507
sS'779836'
p2567
I149332
sS'779268'
p2568
I148750
sS'779678'
p2569
I149173
sS'779837'
p2570
I149334
sS'2848539'
p2571
I1426038
sS'2848538'
p2572
I1426037
sS'777630'
p2573
I147038
sS'2848531'
p2574
I1426030
sS'2848530'
p2575
I1426029
sS'2848533'
p2576
I1426032
sS'2848532'
p2577
I1426031
sS'2848535'
p2578
I1426034
sS'778349'
p2579
I147793
sS'2848537'
p2580
I1426036
sS'2848536'
p2581
I1426035
sS'780209'
p2582
I149716
sS'780208'
p2583
I149715
sS'779127'
p2584
I148605
sS'777123'
p2585
I146501
sS'780201'
p2586
I149708
sS'780200'
p2587
I149707
sS'780203'
p2588
I149710
sS'780202'
p2589
I149709
sS'780205'
p2590
I149712
sS'780204'
p2591
I149711
sS'780207'
p2592
I149714
sS'778027'
p2593
I147458
sS'780199'
p2594
I149706
sS'780198'
p2595
I149705
sS'779839'
p2596
I149336
sS'2848347'
p2597
I1425837
sS'780191'
p2598
I149698
sS'780190'
p2599
I149697
sS'780193'
p2600
I149700
sS'780192'
p2601
I149699
sS'780195'
p2602
I149702
sS'780194'
p2603
I149701
sS'780197'
p2604
I149704
sS'780196'
p2605
I149703
sS'778435'
p2606
I147880
sS'2848345'
p2607
I1425835
sS'2848229'
p2608
I1425713
sS'777124'
p2609
I146502
sS'778434'
p2610
I147879
sS'2848225'
p2611
I1425709
sS'2848224'
p2612
I1425708
sS'2848227'
p2613
I1425711
sS'2848226'
p2614
I1425710
sS'2848221'
p2615
I1425705
sS'779687'
p2616
I149182
sS'2848223'
p2617
I1425707
sS'2848222'
p2618
I1425706
sS'2848157'
p2619
I1425638
sS'778694'
p2620
I148167
sS'2848155'
p2621
I1425636
sS'779686'
p2622
I149181
sS'2848153'
p2623
I1425634
sS'2848152'
p2624
I1425633
sS'2848151'
p2625
I1425632
sS'2848150'
p2626
I1425631
sS'778347'
p2627
I147791
sS'778546'
p2628
I148007
sS'780110'
p2629
I149616
sS'2848408'
p2630
I1425902
sS'2848159'
p2631
I1425640
sS'778430'
p2632
I147875
sS'780443'
p2633
I149877
sS'780442'
p2634
I149876
sS'780441'
p2635
I149875
sS'780440'
p2636
I149874
sS'780447'
p2637
I149881
sS'780446'
p2638
I149880
sS'780445'
p2639
I149879
sS'780444'
p2640
I149878
sS'780449'
p2641
I149884
sS'780000'
p2642
I149500
sS'2848342'
p2643
I1425832
sS'780010'
p2644
I149510
sS'778062'
p2645
I147493
sS'2848220'
p2646
I1425703
sS'778985'
p2647
I148466
sS'778984'
p2648
I148465
sS'778987'
p2649
I148468
sS'778986'
p2650
I148467
sS'778981'
p2651
I148462
sS'778980'
p2652
I148461
sS'778983'
p2653
I148464
sS'778982'
p2654
I148463
sS'2848081'
p2655
I1425556
sS'2848080'
p2656
I1425555
sS'2848083'
p2657
I1425558
sS'2848082'
p2658
I1425557
sS'778989'
p2659
I148470
sS'778988'
p2660
I148469
sS'2848087'
p2661
I1425562
sS'2848086'
p2662
I1425561
sS'776937'
p2663
I146441
sS'2848405'
p2664
I1425899
sS'777495'
p2665
I146901
sS'776575'
p2666
I146073
sS'2848156'
p2667
I1425637
sS'777350'
p2668
I146744
sS'779527'
p2669
I149017
sS'2848407'
p2670
I1425901
sS'779515'
p2671
I149005
sS'2848154'
p2672
I1425635
sS'776351'
p2673
I145846
sS'2848401'
p2674
I1425895
sS'780012'
p2675
I149513
sS'777992'
p2676
I147422
sS'2848400'
p2677
I1425894
sS'777804'
p2678
I147215
sS'779516'
p2679
I149006
sS'2848403'
p2680
I1425897
sS'776546'
p2681
I146044
sS'779511'
p2682
I149001
sS'2848402'
p2683
I1425896
sS'776863'
p2684
I146366
sS'779510'
p2685
I149000
sS'777833'
p2686
I147251
sS'779513'
p2687
I149003
sS'776543'
p2688
I146041
sS'779512'
p2689
I149002
sS'777835'
p2690
I147253
sS'779568'
p2691
I149059
sS'779569'
p2692
I149060
sS'2848209'
p2693
I1425692
sS'779564'
p2694
I149055
sS'779565'
p2695
I149056
sS'779566'
p2696
I149057
sS'779567'
p2697
I149058
sS'779560'
p2698
I149051
sS'779561'
p2699
I149052
sS'779562'
p2700
I149053
sS'779563'
p2701
I149054
sS'776424'
p2702
I145921
sS'779768'
p2703
I149266
sS'779769'
p2704
I149267
sS'779766'
p2705
I149264
sS'779767'
p2706
I149265
sS'779764'
p2707
I149262
sS'779765'
p2708
I149263
sS'779762'
p2709
I149260
sS'779763'
p2710
I149261
sS'779760'
p2711
I149258
sS'779761'
p2712
I149259
sS'776427'
p2713
I145924
sS'776420'
p2714
I145917
sS'776421'
p2715
I145918
sS'779362'
p2716
I148846
sS'779363'
p2717
I148847
sS'779360'
p2718
I148844
sS'779361'
p2719
I148845
sS'779366'
p2720
I148850
sS'776422'
p2721
I145919
sS'779364'
p2722
I148848
sS'779365'
p2723
I148849
sS'780156'
p2724
I149663
sS'779368'
p2725
I148852
sS'776931'
p2726
I146434
sS'778361'
p2727
I147805
sS'778360'
p2728
I147804
sS'778363'
p2729
I147807
sS'778362'
p2730
I147806
sS'778365'
p2731
I147810
sS'778364'
p2732
I147809
sS'778367'
p2733
I147812
sS'778366'
p2734
I147811
sS'778369'
p2735
I147814
sS'778368'
p2736
I147813
sS'778634'
p2737
I148103
sS'779108'
p2738
I148586
sS'779109'
p2739
I148587
sS'779102'
p2740
I148580
sS'779103'
p2741
I148581
sS'779100'
p2742
I148578
sS'779101'
p2743
I148579
sS'779106'
p2744
I148584
sS'779107'
p2745
I148585
sS'779104'
p2746
I148582
sS'779105'
p2747
I148583
sS'780448'
p2748
I149883
sS'776529'
p2749
I146027
sS'778567'
p2750
I148029
sS'778566'
p2751
I148028
sS'778565'
p2752
I148027
sS'778564'
p2753
I148025
sS'778563'
p2754
I148024
sS'778562'
p2755
I148023
sS'778561'
p2756
I148022
sS'778560'
p2757
I148021
sS'777694'
p2758
I147102
sS'779016'
p2759
I148499
sS'776615'
p2760
I146114
sS'778569'
p2761
I148031
sS'778568'
p2762
I148030
sS'776614'
p2763
I146113
sS'778189'
p2764
I147623
sS'778188'
p2765
I147622
sS'777748'
p2766
I147157
sS'776528'
p2767
I146026
sS'777746'
p2768
I147155
sS'777747'
p2769
I147156
sS'777744'
p2770
I147153
sS'777745'
p2771
I147154
sS'777742'
p2772
I147151
sS'777743'
p2773
I147152
sS'778183'
p2774
I147617
sS'777741'
p2775
I147150
sS'779616'
p2776
I149107
sS'779617'
p2777
I149108
sS'779614'
p2778
I149105
sS'779615'
p2779
I149106
sS'778219'
p2780
I147653
sS'779613'
p2781
I149104
sS'778749'
p2782
I148222
sS'778748'
p2783
I148221
sS'778747'
p2784
I148220
sS'778214'
p2785
I147648
sS'778217'
p2786
I147651
sS'778216'
p2787
I147650
sS'778211'
p2788
I147645
sS'778210'
p2789
I147644
sS'778741'
p2790
I148214
sS'778740'
p2791
I148213
sS'779586'
p2792
I149077
sS'779587'
p2793
I149078
sS'779584'
p2794
I149075
sS'779585'
p2795
I149076
sS'779582'
p2796
I149073
sS'779583'
p2797
I149074
sS'779580'
p2798
I149071
sS'779581'
p2799
I149072
sS'778696'
p2800
I148169
sS'779588'
p2801
I149079
sS'779589'
p2802
I149080
sS'777632'
p2803
I147040
sS'777633'
p2804
I147041
sS'778693'
p2805
I148166
sS'778692'
p2806
I148165
sS'777980'
p2807
I147410
sS'777981'
p2808
I147411
sS'777634'
p2809
I147042
sS'777635'
p2810
I147043
sS'779010'
p2811
I148492
sS'778698'
p2812
I148171
sS'777638'
p2813
I147046
sS'777639'
p2814
I147047
sS'777988'
p2815
I147418
sS'777989'
p2816
I147419
sS'777298'
p2817
I146686
sS'777299'
p2818
I146688
sS'776581'
p2819
I146079
sS'777569'
p2820
I146975
sS'776587'
p2821
I146085
sS'776586'
p2822
I146084
sS'776585'
p2823
I146083
sS'776584'
p2824
I146082
sS'777562'
p2825
I146968
sS'777291'
p2826
I146679
sS'776589'
p2827
I146087
sS'777293'
p2828
I146681
sS'777294'
p2829
I146682
sS'777295'
p2830
I146683
sS'777296'
p2831
I146684
sS'777565'
p2832
I146971
sS'778175'
p2833
I147608
sS'779809'
p2834
I149307
sS'779808'
p2835
I149306
sS'779011'
p2836
I148493
sS'777336'
p2837
I146730
sS'779803'
p2838
I149301
sS'779802'
p2839
I149300
sS'779801'
p2840
I149299
sS'779800'
p2841
I149298
sS'779807'
p2842
I149305
sS'779806'
p2843
I149304
sS'779805'
p2844
I149303
sS'779804'
p2845
I149302
sS'776907'
p2846
I146410
sS'776906'
p2847
I146409
sS'776905'
p2848
I146408
sS'776904'
p2849
I146407
sS'776903'
p2850
I146406
sS'776902'
p2851
I146405
sS'776901'
p2852
I146404
sS'776900'
p2853
I146403
sS'776583'
p2854
I146081
sS'778701'
p2855
I148174
sS'2848120'
p2856
I1425600
sS'776909'
p2857
I146412
sS'776908'
p2858
I146411
sS'777690'
p2859
I147098
sS'2848121'
p2860
I1425601
sS'777188'
p2861
I146570
sS'777189'
p2862
I146571
sS'777184'
p2863
I146564
sS'777185'
p2864
I146566
sS'777186'
p2865
I146567
sS'777187'
p2866
I146568
sS'777181'
p2867
I146561
sS'777182'
p2868
I146562
sS'777183'
p2869
I146563
sS'777364'
p2870
I146759
sS'777365'
p2871
I146760
sS'777366'
p2872
I146761
sS'777367'
p2873
I146762
sS'777360'
p2874
I146755
sS'777361'
p2875
I146756
sS'776769'
p2876
I146271
sS'776768'
p2877
I146270
sS'776767'
p2878
I146269
sS'776766'
p2879
I146268
sS'776765'
p2880
I146267
sS'776764'
p2881
I146266
sS'777368'
p2882
I146763
sS'776762'
p2883
I146264
sS'776761'
p2884
I146263
sS'776760'
p2885
I146262
sS'779977'
p2886
I149477
sS'777167'
p2887
I146547
sS'777164'
p2888
I146543
sS'777165'
p2889
I146544
sS'777162'
p2890
I146541
sS'777163'
p2891
I146542
sS'777160'
p2892
I146538
sS'777161'
p2893
I146539
sS'777767'
p2894
I147177
sS'778420'
p2895
I147865
sS'2848128'
p2896
I1425608
sS'777168'
p2897
I146548
sS'777169'
p2898
I146549
sS'778729'
p2899
I148202
sS'2848129'
p2900
I1425609
sS'778728'
p2901
I148201
sS'2848085'
p2902
I1425560
sS'778684'
p2903
I148157
sS'2848084'
p2904
I1425559
sS'776341'
p2905
I145836
sS'776340'
p2906
I145835
sS'776343'
p2907
I145838
sS'776342'
p2908
I145837
sS'776344'
p2909
I145839
sS'776347'
p2910
I145842
sS'776346'
p2911
I145841
sS'776349'
p2912
I145844
sS'776348'
p2913
I145843
sS'779945'
p2914
I149446
sS'776580'
p2915
I146078
sS'778486'
p2916
I147936
sS'778685'
p2917
I148158
sS'778487'
p2918
I147937
sS'780058'
p2919
I149561
sS'778488'
p2920
I147938
sS'2848125'
p2921
I1425605
sS'779940'
p2922
I149441
sS'778337'
p2923
I147781
sS'780050'
p2924
I149553
sS'780051'
p2925
I149554
sS'780052'
p2926
I149555
sS'780053'
p2927
I149556
sS'780054'
p2928
I149557
sS'780055'
p2929
I149558
sS'780056'
p2930
I149559
sS'780057'
p2931
I149560
sS'780150'
p2932
I149657
sS'779713'
p2933
I149209
sS'777246'
p2934
I146632
sS'779712'
p2935
I149208
sS'2848192'
p2936
I1425675
sS'779711'
p2937
I149207
sS'780234'
p2938
I149741
sS'780235'
p2939
I149742
sS'780236'
p2940
I149743
sS'779710'
p2941
I149206
sS'780230'
p2942
I149737
sS'780231'
p2943
I149738
sS'780232'
p2944
I149739
sS'780233'
p2945
I149740
sS'777120'
p2946
I146498
sS'779717'
p2947
I149213
sS'780238'
p2948
I149745
sS'780239'
p2949
I149746
sS'779716'
p2950
I149212
sS'777802'
p2951
I147213
sS'779715'
p2952
I149211
sS'779714'
p2953
I149210
sS'778556'
p2954
I148017
sS'779018'
p2955
I148501
sS'2848238'
p2956
I1425724
sS'2848239'
p2957
I1425725
sS'2848232'
p2958
I1425717
sS'2848233'
p2959
I1425718
sS'2848230'
p2960
I1425715
sS'2848231'
p2961
I1425716
sS'2848236'
p2962
I1425722
sS'2848237'
p2963
I1425723
sS'2848234'
p2964
I1425719
sS'778346'
p2965
I147790
sS'2848144'
p2966
I1425625
sS'2848145'
p2967
I1425626
sS'2848410'
p2968
I1425904
sS'2848147'
p2969
I1425628
sS'2848140'
p2970
I1425620
sS'2848141'
p2971
I1425621
sS'2848142'
p2972
I1425622
sS'2848143'
p2973
I1425623
sS'2848418'
p2974
I1425912
sS'2848419'
p2975
I1425913
sS'2848148'
p2976
I1425629
sS'2848149'
p2977
I1425630
sS'780300'
p2978
I149808
sS'780301'
p2979
I149809
sS'780302'
p2980
I149811
sS'780304'
p2981
I149813
sS'780305'
p2982
I149814
sS'780306'
p2983
I149815
sS'780307'
p2984
I149816
sS'780308'
p2985
I149818
sS'780309'
p2986
I149819
sS'778554'
p2987
I148015
sS'2848369'
p2988
I1425861
sS'2848096'
p2989
I1425574
sS'2848097'
p2990
I1425575
sS'2848094'
p2991
I1425572
sS'2848095'
p2992
I1425573
sS'2848092'
p2993
I1425569
sS'2848093'
p2994
I1425570
sS'2848090'
p2995
I1425566
sS'2848091'
p2996
I1425567
sS'2848098'
p2997
I1425576
sS'2848099'
p2998
I1425577
sS'2848526'
p2999
I1426025
sS'2848527'
p3000
I1426026
sS'2848524'
p3001
I1426023
sS'2848525'
p3002
I1426024
sS'2848522'
p3003
I1426021
sS'2848523'
p3004
I1426022
sS'2848520'
p3005
I1426019
sS'2848521'
p3006
I1426020
sS'780153'
p3007
I149660
sS'2848528'
p3008
I1426027
sS'777619'
p3009
I147027
sS'777968'
p3010
I147396
sS'777614'
p3011
I147022
sS'780435'
p3012
I149869
sS'777615'
p3013
I147023
sS'779447'
p3014
I148933
sS'777616'
p3015
I147024
sS'777121'
p3016
I146499
sS'780083'
p3017
I149587
sS'777617'
p3018
I147025
sS'2848038'
p3019
I1425509
sS'780082'
p3020
I149586
sS'777610'
p3021
I147018
sS'780081'
p3022
I149585
sS'777611'
p3023
I147019
sS'778942'
p3024
I148423
sS'776588'
p3025
I146086
sS'777960'
p3026
I147387
sS'778179'
p3027
I147613
sS'780087'
p3028
I149591
sS'778086'
p3029
I147517
sS'777613'
p3030
I147021
sS'778944'
p3031
I148425
sS'778504'
p3032
I147959
sS'779579'
p3033
I149070
sS'779578'
p3034
I149069
sS'780085'
p3035
I149589
sS'777691'
p3036
I147099
sS'779573'
p3037
I149064
sS'779572'
p3038
I149063
sS'779571'
p3039
I149062
sS'779570'
p3040
I149061
sS'779577'
p3041
I149068
sS'779576'
p3042
I149067
sS'779575'
p3043
I149066
sS'779574'
p3044
I149065
sS'779779'
p3045
I149277
sS'779778'
p3046
I149276
sS'778948'
p3047
I148429
sS'779775'
p3048
I149273
sS'779774'
p3049
I149272
sS'779777'
p3050
I149275
sS'779776'
p3051
I149274
sS'779771'
p3052
I149269
sS'779770'
p3053
I149268
sS'779773'
p3054
I149271
sS'779772'
p3055
I149270
sS'780088'
p3056
I149592
sS'778551'
p3057
I148012
sS'779370'
p3058
I148854
sS'779373'
p3059
I148857
sS'779372'
p3060
I148856
sS'779375'
p3061
I148859
sS'779374'
p3062
I148858
sS'779377'
p3063
I148861
sS'779376'
p3064
I148860
sS'779379'
p3065
I148864
sS'779378'
p3066
I148862
sS'778358'
p3067
I147802
sS'778359'
p3068
I147803
sS'778428'
p3069
I147873
sS'778429'
p3070
I147874
sS'778426'
p3071
I147871
sS'778427'
p3072
I147872
sS'778424'
p3073
I147869
sS'778357'
p3074
I147801
sS'778422'
p3075
I147867
sS'778423'
p3076
I147868
sS'778352'
p3077
I147796
sS'778421'
p3078
I147866
sS'779119'
p3079
I148597
sS'779118'
p3080
I148596
sS'2848409'
p3081
I1425903
sS'779111'
p3082
I148589
sS'779110'
p3083
I148588
sS'779113'
p3084
I148591
sS'779112'
p3085
I148590
sS'779115'
p3086
I148593
sS'779114'
p3087
I148592
sS'779117'
p3088
I148595
sS'779116'
p3089
I148594
sS'778512'
p3090
I147971
sS'778513'
p3091
I147972
sS'778510'
p3092
I147967
sS'778511'
p3093
I147969
sS'778516'
p3094
I147975
sS'778517'
p3095
I147976
sS'778514'
p3096
I147973
sS'778515'
p3097
I147974
sS'778508'
p3098
I147965
sS'778518'
p3099
I147977
sS'778519'
p3100
I147979
sS'777759'
p3101
I147169
sS'777758'
p3102
I147168
sS'2848388'
p3103
I1425882
sS'777755'
p3104
I147165
sS'777754'
p3105
I147163
sS'777757'
p3106
I147167
sS'777756'
p3107
I147166
sS'777751'
p3108
I147160
sS'777750'
p3109
I147159
sS'779056'
p3110
I148535
sS'777752'
p3111
I147161
sS'779605'
p3112
I149096
sS'779604'
p3113
I149095
sS'779607'
p3114
I149098
sS'779606'
p3115
I149097
sS'779601'
p3116
I149092
sS'779600'
p3117
I149091
sS'779603'
p3118
I149094
sS'779602'
p3119
I149093
sS'778220'
p3120
I147654
sS'778221'
p3121
I147655
sS'778222'
p3122
I147656
sS'778223'
p3123
I147657
sS'779609'
p3124
I149100
sS'779608'
p3125
I149099
sS'778226'
p3126
I147660
sS'778227'
p3127
I147661
sS'779595'
p3128
I149086
sS'779594'
p3129
I149085
sS'779597'
p3130
I149088
sS'779596'
p3131
I149087
sS'779591'
p3132
I149082
sS'779590'
p3133
I149081
sS'779593'
p3134
I149084
sS'779592'
p3135
I149083
sS'779599'
p3136
I149090
sS'779598'
p3137
I149089
sS'777993'
p3138
I147423
sS'777620'
p3139
I147028
sS'777623'
p3140
I147031
sS'777622'
p3141
I147030
sS'777997'
p3142
I147427
sS'777624'
p3143
I147032
sS'777627'
p3144
I147035
sS'777626'
p3145
I147034
sS'777629'
p3146
I147037
sS'777628'
p3147
I147036
sS'777999'
p3148
I147429
sS'777998'
p3149
I147428
sS'777579'
p3150
I146986
sS'777578'
p3151
I146985
sS'777811'
p3152
I147226
sS'776579'
p3153
I146077
sS'776576'
p3154
I146074
sS'776577'
p3155
I146075
sS'776574'
p3156
I146072
sS'777572'
p3157
I146979
sS'777575'
p3158
I146982
sS'776573'
p3159
I146071
sS'776570'
p3160
I146068
sS'776571'
p3161
I146069
sS'778646'
p3162
I148116
sS'778647'
p3163
I148117
sS'778645'
p3164
I148115
sS'778642'
p3165
I148112
sS'778643'
p3166
I148113
sS'778640'
p3167
I148110
sS'778641'
p3168
I148111
sS'2848545'
p3169
I1426044
sS'778648'
p3170
I148119
sS'778649'
p3171
I148120
sS'777199'
p3172
I146582
sS'777198'
p3173
I146581
sS'777193'
p3174
I146575
sS'777192'
p3175
I146574
sS'777191'
p3176
I146573
sS'777190'
p3177
I146572
sS'777197'
p3178
I146580
sS'777196'
p3179
I146579
sS'777195'
p3180
I146577
sS'777194'
p3181
I146576
sS'777373'
p3182
I146768
sS'777372'
p3183
I146767
sS'777371'
p3184
I146766
sS'776719'
p3185
I146219
sS'777377'
p3186
I146773
sS'777376'
p3187
I146772
sS'777375'
p3188
I146771
sS'777374'
p3189
I146769
sS'776712'
p3190
I146212
sS'776713'
p3191
I146213
sS'777379'
p3192
I146775
sS'777378'
p3193
I146774
sS'776716'
p3194
I146216
sS'776717'
p3195
I146217
sS'776714'
p3196
I146214
sS'776715'
p3197
I146215
sS'777175'
p3198
I146556
sS'777174'
p3199
I146555
sS'779900'
p3200
I149399
sS'777176'
p3201
I146557
sS'777171'
p3202
I146551
sS'777170'
p3203
I146550
sS'779904'
p3204
I149403
sS'777172'
p3205
I146552
sS'776482'
p3206
I145980
sS'776483'
p3207
I145981
sS'776480'
p3208
I145978
sS'776481'
p3209
I145979
sS'776486'
p3210
I145984
sS'776487'
p3211
I145985
sS'776484'
p3212
I145982
sS'776485'
p3213
I145983
sS'778088'
p3214
I147519
sS'777287'
p3215
I146675
sS'777286'
p3216
I146674
sS'777285'
p3217
I146672
sS'777284'
p3218
I146671
sS'776378'
p3219
I145874
sS'777282'
p3220
I146669
sS'776808'
p3221
I146311
sS'777280'
p3222
I146667
sS'776806'
p3223
I146309
sS'776807'
p3224
I146310
sS'776376'
p3225
I145872
sS'776805'
p3226
I146308
sS'776370'
p3227
I145866
sS'776371'
p3228
I145867
sS'776800'
p3229
I146303
sS'776801'
p3230
I146304
sS'776626'
p3231
I146126
sS'780046'
p3232
I149549
sS'780045'
p3233
I149548
sS'776625'
p3234
I146125
sS'780043'
p3235
I149546
sS'780042'
p3236
I149545
sS'776620'
p3237
I146120
sS'780040'
p3238
I149543
sS'2848104'
p3239
I1425584
sS'776628'
p3240
I146128
sS'780048'
p3241
I149551
sS'776396'
p3242
I145892
sS'776397'
p3243
I145893
sS'776394'
p3244
I145890
sS'776395'
p3245
I145891
sS'776392'
p3246
I145888
sS'776393'
p3247
I145889
sS'776390'
p3248
I145886
sS'776391'
p3249
I145887
sS'777561'
p3250
I146967
sS'2848107'
p3251
I1425587
sS'776398'
p3252
I145894
sS'776399'
p3253
I145895
sS'2848133'
p3254
I1425613
sS'778309'
p3255
I147751
sS'778711'
p3256
I148184
sS'780223'
p3257
I149730
sS'780222'
p3258
I149729
sS'780221'
p3259
I149728
sS'780220'
p3260
I149727
sS'780227'
p3261
I149734
sS'780226'
p3262
I149733
sS'780225'
p3263
I149732
sS'780224'
p3264
I149731
sS'780229'
p3265
I149736
sS'780228'
p3266
I149735
sS'2848399'
p3267
I1425893
sS'2848398'
p3268
I1425892
sS'776928'
p3269
I146431
sS'2848359'
p3270
I1425849
sS'776701'
p3271
I146201
sS'777636'
p3272
I147044
sS'2848296'
p3273
I1425784
sS'776700'
p3274
I146200
sS'776703'
p3275
I146203
sS'779367'
p3276
I148851
sS'2848171'
p3277
I1425653
sS'2848170'
p3278
I1425652
sS'2848173'
p3279
I1425655
sS'776702'
p3280
I146202
sS'2848175'
p3281
I1425657
sS'2848174'
p3282
I1425656
sS'2848177'
p3283
I1425659
sS'2848176'
p3284
I1425658
sS'2848179'
p3285
I1425661
sS'776705'
p3286
I146205
sS'776704'
p3287
I146204
sS'777380'
p3288
I146776
sS'2848197'
p3289
I1425680
sS'780314'
p3290
I149824
sS'780313'
p3291
I149823
sS'780312'
p3292
I149822
sS'780311'
p3293
I149821
sS'776499'
p3294
I145997
sS'779369'
p3295
I148853
sS'776498'
p3296
I145996
sS'776593'
p3297
I146091
sS'2848194'
p3298
I1425677
sS'777142'
p3299
I146520
sS'777566'
p3300
I146972
sS'2848552'
p3301
I1426051
sS'2848551'
p3302
I1426050
sS'779912'
p3303
I149414
sS'2848557'
p3304
I1426056
sS'2848556'
p3305
I1426055
sS'2848555'
p3306
I1426054
sS'2848554'
p3307
I1426053
sS'2848559'
p3308
I1426058
sS'2848558'
p3309
I1426057
sS'779914'
p3310
I149416
sS'778308'
p3311
I147750
sS'779917'
p3312
I149418
sS'779916'
p3313
I149417
sS'779919'
p3314
I149420
sS'777149'
p3315
I146527
sS'778882'
p3316
I148363
sS'777571'
p3317
I146978
sS'2848200'
p3318
I1425683
sS'777532'
p3319
I146938
sS'779858'
p3320
I149355
sS'777122'
p3321
I146500
sS'779859'
p3322
I149357
sS'2848204'
p3323
I1425687
sS'779748'
p3324
I149246
sS'779749'
p3325
I149247
sS'779298'
p3326
I148782
sS'779299'
p3327
I148783
sS'2848563'
p3328
I1426062
sS'779740'
p3329
I149237
sS'779741'
p3330
I149238
sS'779742'
p3331
I149239
sS'779291'
p3332
I148775
sS'779296'
p3333
I148780
sS'779745'
p3334
I149243
sS'779746'
p3335
I149244
sS'779747'
p3336
I149245
sS'777790'
p3337
I147201
sS'779065'
p3338
I148544
sS'778719'
p3339
I148192
sS'779064'
p3340
I148543
sS'2848566'
p3341
I1426065
sS'2848340'
p3342
I1425830
sS'779066'
p3343
I148545
sS'779348'
p3344
I148832
sS'779349'
p3345
I148833
sS'779344'
p3346
I148828
sS'779345'
p3347
I148829
sS'779346'
p3348
I148830
sS'779347'
p3349
I148831
sS'779340'
p3350
I148824
sS'779341'
p3351
I148825
sS'779342'
p3352
I148826
sS'779343'
p3353
I148827
sS'779124'
p3354
I148602
sS'779125'
p3355
I148603
sS'779126'
p3356
I148604
sS'778348'
p3357
I147792
sS'779120'
p3358
I148598
sS'779121'
p3359
I148599
sS'779122'
p3360
I148600
sS'779123'
p3361
I148601
sS'778343'
p3362
I147787
sS'778342'
p3363
I147786
sS'778341'
p3364
I147785
sS'778436'
p3365
I147881
sS'779128'
p3366
I148606
sS'779129'
p3367
I148607
sS'778433'
p3368
I147878
sS'778432'
p3369
I147877
sS'778592'
p3370
I148057
sS'778593'
p3371
I148058
sS'778590'
p3372
I148055
sS'776599'
p3373
I146097
sS'777816'
p3374
I147232
sS'778591'
p3375
I148056
sS'777817'
p3376
I147234
sS'778044'
p3377
I147475
sS'2848033'
p3378
I1425503
sS'777814'
p3379
I147229
sS'779068'
p3380
I148546
sS'778501'
p3381
I147955
sS'778500'
p3382
I147954
sS'778503'
p3383
I147958
sS'778502'
p3384
I147957
sS'778505'
p3385
I147960
sS'778046'
p3386
I147477
sS'778507'
p3387
I147964
sS'778506'
p3388
I147963
sS'778509'
p3389
I147966
sS'777812'
p3390
I147227
sS'778595'
p3391
I148061
sS'777126'
p3392
I146504
sS'777813'
p3393
I147228
sS'777768'
p3394
I147179
sS'777769'
p3395
I147180
sS'778235'
p3396
I147669
sS'778234'
p3397
I147668
sS'778233'
p3398
I147667
sS'778232'
p3399
I147666
sS'778231'
p3400
I147665
sS'778230'
p3401
I147664
sS'777760'
p3402
I147170
sS'777761'
p3403
I147171
sS'777762'
p3404
I147172
sS'777763'
p3405
I147173
sS'777764'
p3406
I147174
sS'777765'
p3407
I147175
sS'778239'
p3408
I147674
sS'778238'
p3409
I147672
sS'779630'
p3410
I149121
sS'779631'
p3411
I149122
sS'779632'
p3412
I149123
sS'777932'
p3413
I147355
sS'779634'
p3414
I149125
sS'779635'
p3415
I149126
sS'779636'
p3416
I149127
sS'776814'
p3417
I146317
sS'778721'
p3418
I148194
sS'779639'
p3419
I149130
sS'778723'
p3420
I148196
sS'778722'
p3421
I148195
sS'778725'
p3422
I148198
sS'778724'
p3423
I148197
sS'778727'
p3424
I148200
sS'778726'
p3425
I148199
sS'777577'
p3426
I146984
sS'776816'
p3427
I146319
sS'776367'
p3428
I145863
sS'2848429'
p3429
I1425923
sS'776366'
p3430
I145862
sS'779923'
p3431
I149424
sS'777151'
p3432
I146529
sS'777618'
p3433
I147026
sS'777818'
p3434
I147235
sS'777797'
p3435
I147208
sS'777969'
p3436
I147397
sS'777966'
p3437
I147393
sS'777967'
p3438
I147394
sS'777964'
p3439
I147391
sS'777965'
p3440
I147392
sS'777962'
p3441
I147389
sS'777963'
p3442
I147390
sS'777612'
p3443
I147020
sS'777961'
p3444
I147388
sS'776635'
p3445
I146135
sS'2848394'
p3446
I1425888
sS'776569'
p3447
I146067
sS'776568'
p3448
I146066
sS'776634'
p3449
I146134
sS'776565'
p3450
I146063
sS'776564'
p3451
I146062
sS'776567'
p3452
I146065
sS'776566'
p3453
I146064
sS'776561'
p3454
I146059
sS'776560'
p3455
I146058
sS'776563'
p3456
I146061
sS'776562'
p3457
I146060
sS'778655'
p3458
I148127
sS'778654'
p3459
I148126
sS'778657'
p3460
I148129
sS'778656'
p3461
I148128
sS'778651'
p3462
I148122
sS'778650'
p3463
I148121
sS'778653'
p3464
I148124
sS'778652'
p3465
I148123
sS'777330'
p3466
I146724
sS'776631'
p3467
I146131
sS'778659'
p3468
I148132
sS'778658'
p3469
I148131
sS'776630'
p3470
I146130
sS'776961'
p3471
I146465
sS'776960'
p3472
I146464
sS'776963'
p3473
I146467
sS'776962'
p3474
I146466
sS'776965'
p3475
I146469
sS'776964'
p3476
I146468
sS'776632'
p3477
I146132
sS'2848426'
p3478
I1425920
sS'780132'
p3479
I149639
sS'778449'
p3480
I147894
sS'780047'
p3481
I149550
sS'776708'
p3482
I146208
sS'777388'
p3483
I146786
sS'777389'
p3484
I146787
sS'777386'
p3485
I146783
sS'777387'
p3486
I146785
sS'777384'
p3487
I146781
sS'777385'
p3488
I146782
sS'777382'
p3489
I146779
sS'777383'
p3490
I146780
sS'776707'
p3491
I146207
sS'777381'
p3492
I146778
sS'777140'
p3493
I146518
sS'777141'
p3494
I146519
sS'779913'
p3495
I149415
sS'777143'
p3496
I146521
sS'777144'
p3497
I146522
sS'777145'
p3498
I146523
sS'777146'
p3499
I146524
sS'777147'
p3500
I146525
sS'776491'
p3501
I145989
sS'779918'
p3502
I149419
sS'776493'
p3503
I145991
sS'776492'
p3504
I145990
sS'776495'
p3505
I145993
sS'776494'
p3506
I145992
sS'776497'
p3507
I145995
sS'776496'
p3508
I145994
sS'778447'
p3509
I147892
sS'779895'
p3510
I149393
sS'777544'
p3511
I146950
sS'777545'
p3512
I146952
sS'776369'
p3513
I145865
sS'777547'
p3514
I146953
sS'777540'
p3515
I146946
sS'777541'
p3516
I146947
sS'777542'
p3517
I146948
sS'777543'
p3518
I146949
sS'776363'
p3519
I145859
sS'776362'
p3520
I145858
sS'776361'
p3521
I145857
sS'776360'
p3522
I145856
sS'777548'
p3523
I146954
sS'776810'
p3524
I146313
sS'776813'
p3525
I146316
sS'777819'
p3526
I147236
sS'780032'
p3527
I149535
sS'780033'
p3528
I149536
sS'780030'
p3529
I149533
sS'780031'
p3530
I149534
sS'780036'
p3531
I149539
sS'780037'
p3532
I149540
sS'776633'
p3533
I146133
sS'780035'
p3534
I149538
sS'780038'
p3535
I149541
sS'780039'
p3536
I149542
sS'776639'
p3537
I146139
sS'776638'
p3538
I146138
sS'776385'
p3539
I145881
sS'776384'
p3540
I145880
sS'776387'
p3541
I145883
sS'776386'
p3542
I145882
sS'776381'
p3543
I145877
sS'776380'
p3544
I145876
sS'776383'
p3545
I145879
sS'776382'
p3546
I145878
sS'780044'
p3547
I149547
sS'780466'
p3548
I149903
sS'776389'
p3549
I145885
sS'776388'
p3550
I145884
sS'777749'
p3551
I147158
sS'778141'
p3552
I147572
sS'778185'
p3553
I147619
sS'778184'
p3554
I147618
sS'776549'
p3555
I146047
sS'778187'
p3556
I147621
sS'2848382'
p3557
I1425876
sS'2848383'
p3558
I1425877
sS'2848380'
p3559
I1425873
sS'778186'
p3560
I147620
sS'2848386'
p3561
I1425880
sS'2840398'
p3562
I1425466
sS'2848384'
p3563
I1425878
sS'2848385'
p3564
I1425879
sS'2840395'
p3565
I1425463
sS'778181'
p3566
I147615
sS'2840397'
p3567
I1425465
sS'2840396'
p3568
I1425464
sS'778140'
p3569
I147571
sS'778180'
p3570
I147614
sS'778888'
p3571
I148369
sS'778889'
p3572
I148370
sS'780148'
p3573
I149655
sS'780149'
p3574
I149656
sS'780146'
p3575
I149653
sS'778885'
p3576
I148366
sS'780144'
p3577
I149651
sS'778182'
p3578
I147616
sS'778880'
p3579
I148361
sS'778881'
p3580
I148362
sS'780140'
p3581
I149647
sS'778883'
p3582
I148364
sS'2848158'
p3583
I1425639
sS'777568'
p3584
I146974
sS'2848550'
p3585
I1426049
sS'778143'
p3586
I147574
sS'780041'
p3587
I149544
sS'779612'
p3588
I149103
sS'778236'
p3589
I147670
sS'779308'
p3590
I148792
sS'779610'
p3591
I149101
sS'2848168'
p3592
I1425650
sS'2848169'
p3593
I1425651
sS'2848166'
p3594
I1425648
sS'2848167'
p3595
I1425649
sS'2848164'
p3596
I1425646
sS'779611'
p3597
I149102
sS'2848162'
p3598
I1425644
sS'779733'
p3599
I149230
sS'2848160'
p3600
I1425642
sS'2848161'
p3601
I1425643
sS'778215'
p3602
I147649
sS'779446'
p3603
I148932
sS'778746'
p3604
I148219
sS'780490'
p3605
I149931
sS'780491'
p3606
I149932
sS'780492'
p3607
I149933
sS'777753'
p3608
I147162
sS'778745'
p3609
I148218
sS'778744'
p3610
I148217
sS'778145'
p3611
I147577
sS'778743'
p3612
I148216
sS'778742'
p3613
I148215
sS'2848540'
p3614
I1426039
sS'2848541'
p3615
I1426040
sS'2848542'
p3616
I1426041
sS'2848543'
p3617
I1426042
sS'2848544'
p3618
I1426043
sS'779618'
p3619
I149109
sS'777429'
p3620
I146830
sS'779738'
p3621
I149235
sS'2848548'
p3622
I1426047
sS'2848549'
p3623
I1426048
sS'778212'
p3624
I147646
sS'779196'
p3625
I148677
sS'780439'
p3626
I149873
sS'778866'
p3627
I148346
sS'778867'
p3628
I148347
sS'778864'
p3629
I148343
sS'778865'
p3630
I148345
sS'778862'
p3631
I148340
sS'778863'
p3632
I148342
sS'778860'
p3633
I148337
sS'778861'
p3634
I148338
sS'776927'
p3635
I146430
sS'778868'
p3636
I148348
sS'778869'
p3637
I148349
sS'779757'
p3638
I149255
sS'779756'
p3639
I149254
sS'779755'
p3640
I149253
sS'779754'
p3641
I149252
sS'779753'
p3642
I149251
sS'779752'
p3643
I149250
sS'779751'
p3644
I149249
sS'779750'
p3645
I149248
sS'2848132'
p3646
I1425612
sS'779759'
p3647
I149257
sS'779758'
p3648
I149256
sS'779289'
p3649
I148772
sS'779288'
p3650
I148771
sS'2848381'
p3651
I1425875
sS'779281'
p3652
I148764
sS'779280'
p3653
I148763
sS'779283'
p3654
I148766
sS'779282'
p3655
I148765
sS'779285'
p3656
I148768
sS'779284'
p3657
I148767
sS'779287'
p3658
I148770
sS'779286'
p3659
I148769
sS'778691'
p3660
I148164
sS'778690'
p3661
I148163
sS'777986'
p3662
I147416
sS'779359'
p3663
I148843
sS'777987'
p3664
I147417
sS'780080'
p3665
I149584
sS'779353'
p3666
I148837
sS'778695'
p3667
I148168
sS'779351'
p3668
I148835
sS'779350'
p3669
I148834
sS'779357'
p3670
I148841
sS'779356'
p3671
I148840
sS'779355'
p3672
I148839
sS'777637'
p3673
I147045
sS'779133'
p3674
I148611
sS'779132'
p3675
I148610
sS'779131'
p3676
I148609
sS'779130'
p3677
I148608
sS'779137'
p3678
I148615
sS'779136'
p3679
I148614
sS'779135'
p3680
I148613
sS'779134'
p3681
I148612
sS'778400'
p3682
I147845
sS'778401'
p3683
I147846
sS'779139'
p3684
I148617
sS'779138'
p3685
I148616
sS'778404'
p3686
I147849
sS'778405'
p3687
I147850
sS'778406'
p3688
I147851
sS'778407'
p3689
I147852
sS'777560'
p3690
I146966
sS'2848266'
p3691
I1425753
sS'780049'
p3692
I149552
sS'777564'
p3693
I146970
sS'2848352'
p3694
I1425842
sS'780134'
p3695
I149641
sS'778538'
p3696
I147999
sS'778539'
p3697
I148000
sS'778534'
p3698
I147995
sS'778535'
p3699
I147996
sS'778536'
p3700
I147997
sS'778537'
p3701
I147998
sS'778530'
p3702
I147990
sS'778531'
p3703
I147991
sS'778532'
p3704
I147992
sS'778533'
p3705
I147993
sS'778242'
p3706
I147679
sS'778243'
p3707
I147681
sS'778240'
p3708
I147675
sS'778241'
p3709
I147677
sS'778246'
p3710
I147684
sS'778247'
p3711
I147685
sS'778244'
p3712
I147682
sS'778245'
p3713
I147683
sS'778248'
p3714
I147686
sS'778249'
p3715
I147687
sS'778718'
p3716
I148191
sS'777111'
p3717
I146489
sS'778084'
p3718
I147515
sS'778085'
p3719
I147516
sS'776926'
p3720
I146429
sS'777446'
p3721
I146848
sS'778080'
p3722
I147511
sS'778081'
p3723
I147512
sS'779629'
p3724
I149120
sS'778083'
p3725
I147514
sS'779627'
p3726
I149118
sS'777117'
p3727
I146495
sS'779625'
p3728
I149116
sS'779624'
p3729
I149115
sS'779317'
p3730
I148801
sS'778089'
p3731
I147521
sS'779621'
p3732
I149112
sS'777116'
p3733
I146494
sS'780147'
p3734
I149654
sS'778887'
p3735
I148368
sS'777115'
p3736
I146493
sS'780142'
p3737
I149649
sS'777114'
p3738
I146492
sS'780143'
p3739
I149650
sS'777567'
p3740
I146973
sS'777290'
p3741
I146678
sS'777609'
p3742
I147017
sS'777608'
p3743
I147016
sS'777979'
p3744
I147409
sS'777978'
p3745
I147408
sS'777563'
p3746
I146969
sS'777603'
p3747
I147011
sS'777602'
p3748
I147010
sS'777601'
p3749
I147009
sS'777600'
p3750
I147008
sS'777971'
p3751
I147399
sS'777970'
p3752
I147398
sS'777973'
p3753
I147401
sS'777972'
p3754
I147400
sS'776558'
p3755
I146056
sS'776559'
p3756
I146057
sS'776463'
p3757
I145961
sS'776550'
p3758
I146048
sS'776551'
p3759
I146049
sS'776552'
p3760
I146050
sS'776553'
p3761
I146051
sS'776554'
p3762
I146052
sS'776555'
p3763
I146053
sS'777815'
p3764
I147230
sS'776557'
p3765
I146055
sS'778660'
p3766
I148133
sS'778661'
p3767
I148134
sS'778662'
p3768
I148135
sS'778663'
p3769
I148136
sS'778664'
p3770
I148137
sS'778665'
p3771
I148138
sS'778666'
p3772
I148139
sS'778667'
p3773
I148140
sS'778668'
p3774
I148141
sS'778669'
p3775
I148142
sS'777297'
p3776
I146685
sS'778390'
p3777
I147835
sS'778391'
p3778
I147836
sS'778392'
p3779
I147837
sS'778393'
p3780
I147838
sS'776958'
p3781
I146462
sS'776959'
p3782
I146463
sS'778396'
p3783
I147841
sS'778397'
p3784
I147842
sS'776954'
p3785
I146458
sS'776955'
p3786
I146459
sS'776956'
p3787
I146460
sS'776957'
p3788
I146461
sS'776950'
p3789
I146454
sS'776951'
p3790
I146455
sS'776952'
p3791
I146456
sS'776953'
p3792
I146457
sS'777777'
p3793
I147188
sS'777776'
p3794
I147187
sS'777775'
p3795
I147186
sS'777774'
p3796
I147185
sS'777773'
p3797
I147184
sS'777772'
p3798
I147183
sS'777771'
p3799
I147182
sS'777770'
p3800
I147181
sS'777779'
p3801
I147190
sS'777778'
p3802
I147189
sS'779542'
p3803
I149033
sS'777399'
p3804
I146798
sS'777398'
p3805
I146797
sS'779543'
p3806
I149034
sS'777395'
p3807
I146794
sS'777394'
p3808
I146793
sS'777397'
p3809
I146796
sS'777396'
p3810
I146795
sS'777391'
p3811
I146790
sS'779540'
p3812
I149031
sS'777393'
p3813
I146792
sS'777392'
p3814
I146791
sS'779628'
p3815
I149119
sS'778018'
p3816
I147449
sS'779928'
p3817
I149428
sS'779929'
p3818
I149430
sS'777159'
p3819
I146537
sS'777158'
p3820
I146536
sS'777157'
p3821
I146535
sS'777156'
p3822
I146534
sS'777155'
p3823
I146533
sS'777154'
p3824
I146532
sS'777153'
p3825
I146531
sS'777152'
p3826
I146530
sS'779922'
p3827
I149423
sS'778548'
p3828
I148009
sS'779544'
p3829
I149035
sS'776921'
p3830
I146424
sS'779545'
p3831
I149036
sS'777805'
p3832
I147216
sS'777552'
p3833
I146958
sS'777807'
p3834
I147218
sS'777550'
p3835
I146956
sS'777557'
p3836
I146963
sS'777800'
p3837
I147211
sS'777803'
p3838
I147214
sS'777554'
p3839
I146960
sS'776820'
p3840
I146323
sS'776821'
p3841
I146324
sS'777559'
p3842
I146965
sS'777558'
p3843
I146964
sS'777809'
p3844
I147220
sS'778547'
p3845
I148008
sS'776826'
p3846
I146329
sS'776827'
p3847
I146330
sS'776600'
p3848
I146098
sS'776601'
p3849
I146099
sS'780023'
p3850
I149526
sS'780022'
p3851
I149525
sS'780025'
p3852
I149528
sS'780024'
p3853
I149527
sS'780027'
p3854
I149530
sS'780026'
p3855
I149529
sS'776608'
p3856
I146106
sS'780028'
p3857
I149531
sS'779626'
p3858
I149117
sS'779019'
p3859
I148502
sS'778543'
p3860
I148004
sS'776868'
p3861
I146371
sS'778542'
p3862
I148003
sS'2848317'
p3863
I1425806
sS'776869'
p3864
I146372
sS'780086'
p3865
I149590
sS'776734'
p3866
I146234
sS'776735'
p3867
I146235
sS'776736'
p3868
I146236
sS'776737'
p3869
I146237
sS'776730'
p3870
I146230
sS'776731'
p3871
I146231
sS'776732'
p3872
I146232
sS'776733'
p3873
I146233
sS'776738'
p3874
I146239
sS'776739'
p3875
I146240
sS'778702'
p3876
I148175
sS'779782'
p3877
I149280
sS'2848379'
p3878
I1425872
sS'2848378'
p3879
I1425871
sS'2848377'
p3880
I1425870
sS'2848376'
p3881
I1425869
sS'2848375'
p3882
I1425868
sS'2848374'
p3883
I1425867
sS'2848373'
p3884
I1425866
sS'2848372'
p3885
I1425865
sS'2848371'
p3886
I1425864
sS'2848370'
p3887
I1425862
sS'779425'
p3888
I148911
sS'778899'
p3889
I148380
sS'778898'
p3890
I148379
sS'780159'
p3891
I149666
sS'776862'
p3892
I146365
sS'779424'
p3893
I148910
sS'778893'
p3894
I148374
sS'780154'
p3895
I149661
sS'778891'
p3896
I148372
sS'778890'
p3897
I148371
sS'778897'
p3898
I148378
sS'778896'
p3899
I148377
sS'778895'
p3900
I148376
sS'778894'
p3901
I148375
sS'779394'
p3902
I148880
sS'779689'
p3903
I149184
sS'779623'
p3904
I149114
sS'779393'
p3905
I148879
sS'779420'
p3906
I148906
sS'778937'
p3907
I148418
sS'779423'
p3908
I148909
sS'778720'
p3909
I148193
sS'779422'
p3910
I148908
sS'780487'
p3911
I149928
sS'780486'
p3912
I149927
sS'780485'
p3913
I149926
sS'780484'
p3914
I149925
sS'780483'
p3915
I149924
sS'780482'
p3916
I149922
sS'780481'
p3917
I149921
sS'780480'
p3918
I149919
sS'2848113'
p3919
I1425593
sS'777796'
p3920
I147207
sS'2848111'
p3921
I1425591
sS'2848110'
p3922
I1425590
sS'2848117'
p3923
I1425597
sS'780145'
p3924
I149652
sS'780489'
p3925
I149930
sS'780488'
p3926
I149929
sS'776514'
p3927
I146012
sS'2848289'
p3928
I1425777
sS'2848288'
p3929
I1425776
sS'777840'
p3930
I147258
sS'2848283'
p3931
I1425770
sS'2848282'
p3932
I1425769
sS'2848281'
p3933
I1425768
sS'2848280'
p3934
I1425767
sS'2848287'
p3935
I1425775
sS'777843'
p3936
I147261
sS'2848285'
p3937
I1425772
sS'2848284'
p3938
I1425771
sS'777842'
p3939
I147260
sS'776510'
p3940
I146008
sS'777844'
p3941
I147262
sS'780246'
p3942
I149753
sS'777846'
p3943
I147265
sS'2848571'
p3944
I1426070
sS'2848570'
p3945
I1426069
sS'2848572'
p3946
I1426071
sS'779620'
p3947
I149111
sS'2848026'
p3948
I1425496
sS'2848025'
p3949
I1425495
sS'2848024'
p3950
I1425494
sS'2848023'
p3951
I1425493
sS'2848029'
p3952
I1425499
sS'2848028'
p3953
I1425498
sS'777808'
p3954
I147219
sS'777362'
p3955
I146757
sS'780494'
p3956
I149935
sS'777363'
p3957
I146758
sS'778875'
p3958
I148355
sS'778874'
p3959
I148354
sS'778877'
p3960
I148357
sS'778876'
p3961
I148356
sS'778871'
p3962
I148351
sS'778870'
p3963
I148350
sS'778873'
p3964
I148353
sS'778872'
p3965
I148352
sS'2848547'
p3966
I1426046
sS'778879'
p3967
I148360
sS'778878'
p3968
I148359
sS'779722'
p3969
I149219
sS'779723'
p3970
I149220
sS'779720'
p3971
I149217
sS'779721'
p3972
I149218
sS'779726'
p3973
I149223
sS'779727'
p3974
I149224
sS'779724'
p3975
I149221
sS'779725'
p3976
I149222
sS'776763'
p3977
I146265
sS'779728'
p3978
I149225
sS'779729'
p3979
I149226
sS'777519'
p3980
I146925
sS'779905'
p3981
I149404
sS'777369'
p3982
I146764
sS'776488'
p3983
I145986
sS'780011'
p3984
I149511
sS'777166'
p3985
I146545
sS'779976'
p3986
I149476
sS'779975'
p3987
I149475
sS'779974'
p3988
I149474
sS'2848569'
p3989
I1426068
sS'776489'
p3990
I145987
sS'779973'
p3991
I149473
sS'779141'
p3992
I148619
sS'779972'
p3993
I149472
sS'778307'
p3994
I147748
sS'2848406'
p3995
I1425900
sS'779971'
p3996
I149471
sS'778306'
p3997
I147747
sS'779970'
p3998
I149470
sS'778946'
p3999
I148427
sS'779380'
p4000
I148865
sS'779381'
p4001
I148866
sS'776706'
p4002
I146206
sS'779383'
p4003
I148868
sS'779384'
p4004
I148870
sS'779385'
p4005
I148871
sS'779386'
p4006
I148872
sS'779387'
p4007
I148873
sS'779388'
p4008
I148874
sS'779389'
p4009
I148875
sS'779434'
p4010
I148920
sS'779435'
p4011
I148921
sS'779432'
p4012
I148918
sS'779433'
p4013
I148919
sS'779430'
p4014
I148916
sS'779431'
p4015
I148917
sS'777148'
p4016
I146526
sS'2848534'
p4017
I1426033
sS'779293'
p4018
I148777
sS'777985'
p4019
I147415
sS'778529'
p4020
I147989
sS'778528'
p4021
I147988
sS'778523'
p4022
I147983
sS'778522'
p4023
I147982
sS'778521'
p4024
I147981
sS'778520'
p4025
I147980
sS'778527'
p4026
I147987
sS'778526'
p4027
I147986
sS'778525'
p4028
I147985
sS'778524'
p4029
I147984
sS'778251'
p4030
I147689
sS'778250'
p4031
I147688
sS'778253'
p4032
I147691
sS'778252'
p4033
I147690
sS'778255'
p4034
I147693
sS'778254'
p4035
I147692
sS'778705'
p4036
I148178
sS'778256'
p4037
I147694
sS'778259'
p4038
I147697
sS'778258'
p4039
I147696
sS'778709'
p4040
I148182
sS'778708'
p4041
I148181
sS'776490'
p4042
I145988
sS'778093'
p4043
I147525
sS'778092'
p4044
I147524
sS'779658'
p4045
I149150
sS'779659'
p4046
I149151
sS'778097'
p4047
I147529
sS'778096'
p4048
I147528
sS'778095'
p4049
I147527
sS'778094'
p4050
I147526
sS'776623'
p4051
I146123
sS'779653'
p4052
I149144
sS'779650'
p4053
I149141
sS'779651'
p4054
I149142
sS'779656'
p4055
I149148
sS'779657'
p4056
I149149
sS'779654'
p4057
I149145
sS'779655'
p4058
I149147
sS'777948'
p4059
I147373
sS'778416'
p4060
I147861
sS'778415'
p4061
I147860
sS'778414'
p4062
I147859
sS'778413'
p4063
I147858
sS'778412'
p4064
I147857
sS'778411'
p4065
I147856
sS'778410'
p4066
I147855
sS'777940'
p4067
I147363
sS'777941'
p4068
I147364
sS'777942'
p4069
I147365
sS'777943'
p4070
I147367
sS'777944'
p4071
I147368
sS'777945'
p4072
I147369
sS'777946'
p4073
I147370
sS'777947'
p4074
I147372
sS'777513'
p4075
I146919
sS'779633'
p4076
I149124
sS'778066'
p4077
I147497
sS'779551'
p4078
I149042
sS'780021'
p4079
I149524
sS'778679'
p4080
I148152
sS'778678'
p4081
I148151
sS'778677'
p4082
I148150
sS'778676'
p4083
I148149
sS'778674'
p4084
I148147
sS'778673'
p4085
I148146
sS'778672'
p4086
I148145
sS'778671'
p4087
I148144
sS'777492'
p4088
I146898
sS'777493'
p4089
I146899
sS'777490'
p4090
I146895
sS'777491'
p4091
I146897
sS'777496'
p4092
I146902
sS'777497'
p4093
I146903
sS'777494'
p4094
I146900
sS'778892'
p4095
I148373
sS'776943'
p4096
I146447
sS'776942'
p4097
I146446
sS'777498'
p4098
I146904
sS'778384'
p4099
I147829
sS'776947'
p4100
I146451
sS'776946'
p4101
I146450
sS'776945'
p4102
I146449
sS'776944'
p4103
I146448
sS'777702'
p4104
I147110
sS'777703'
p4105
I147111
sS'777700'
p4106
I147108
sS'777701'
p4107
I147109
sS'777706'
p4108
I147114
sS'777707'
p4109
I147115
sS'779170'
p4110
I148649
sS'777705'
p4111
I147113
sS'777708'
p4112
I147116
sS'777709'
p4113
I147117
sS'780034'
p4114
I149537
sS'779553'
p4115
I149044
sS'779939'
p4116
I149440
sS'779938'
p4117
I149439
sS'777621'
p4118
I147029
sS'779933'
p4119
I149434
sS'779932'
p4120
I149433
sS'779931'
p4121
I149432
sS'779930'
p4122
I149431
sS'779937'
p4123
I149438
sS'779936'
p4124
I149437
sS'779935'
p4125
I149436
sS'777125'
p4126
I146503
sS'776837'
p4127
I146340
sS'776836'
p4128
I146339
sS'776835'
p4129
I146338
sS'776834'
p4130
I146337
sS'776833'
p4131
I146336
sS'776832'
p4132
I146335
sS'776831'
p4133
I146334
sS'776830'
p4134
I146333
sS'779552'
p4135
I149043
sS'776839'
p4136
I146342
sS'776838'
p4137
I146341
sS'776547'
p4138
I146045
sS'777831'
p4139
I147249
sS'776545'
p4140
I146043
sS'776544'
p4141
I146042
sS'777834'
p4142
I147252
sS'776542'
p4143
I146040
sS'776541'
p4144
I146039
sS'776540'
p4145
I146038
sS'777838'
p4146
I147256
sS'777839'
p4147
I147257
sS'779637'
p4148
I149128
sS'776548'
p4149
I146046
sS'780018'
p4150
I149521
sS'780019'
p4151
I149522
sS'776618'
p4152
I146118
sS'780014'
p4153
I149517
sS'780015'
p4154
I149518
sS'780016'
p4155
I149519
sS'780017'
p4156
I149520
sS'776613'
p4157
I146112
sS'776612'
p4158
I146111
sS'776611'
p4159
I146109
sS'780013'
p4160
I149516
sS'777236'
p4161
I146622
sS'777237'
p4162
I146623
sS'777235'
p4163
I146621
sS'777232'
p4164
I146618
sS'777233'
p4165
I146619
sS'777230'
p4166
I146616
sS'777231'
p4167
I146617
sS'779292'
p4168
I148776
sS'777704'
p4169
I147112
sS'779638'
p4170
I149129
sS'778832'
p4171
I148307
sS'777238'
p4172
I146624
sS'777239'
p4173
I146625
sS'779554'
p4174
I149045
sS'780020'
p4175
I149523
sS'780116'
p4176
I149622
sS'776723'
p4177
I146223
sS'776722'
p4178
I146222
sS'776721'
p4179
I146221
sS'776720'
p4180
I146220
sS'776727'
p4181
I146227
sS'776726'
p4182
I146226
sS'776725'
p4183
I146225
sS'776724'
p4184
I146224
sS'776729'
p4185
I146229
sS'776728'
p4186
I146228
sS'776582'
p4187
I146080
sS'2848368'
p4188
I1425860
sS'778464'
p4189
I147911
sS'779557'
p4190
I149048
sS'2848364'
p4191
I1425855
sS'2848365'
p4192
I1425856
sS'2848366'
p4193
I1425857
sS'2848367'
p4194
I1425858
sS'2848360'
p4195
I1425850
sS'2848361'
p4196
I1425852
sS'2848362'
p4197
I1425853
sS'2848363'
p4198
I1425854
sS'780168'
p4199
I149676
sS'780169'
p4200
I149677
sS'779290'
p4201
I148774
sS'780160'
p4202
I149667
sS'780161'
p4203
I149668
sS'780162'
p4204
I149669
sS'780163'
p4205
I149670
sS'780164'
p4206
I149671
sS'780165'
p4207
I149672
sS'780166'
p4208
I149673
sS'780167'
p4209
I149674
sS'779556'
p4210
I149047
sS'780059'
p4211
I149562
sS'2848488'
p4212
I1425986
sS'780408'
p4213
I149842
sS'778345'
p4214
I147789
sS'778965'
p4215
I148446
sS'2848108'
p4216
I1425588
sS'2848109'
p4217
I1425589
sS'778388'
p4218
I147833
sS'2848100'
p4219
I1425579
sS'2848101'
p4220
I1425580
sS'2848102'
p4221
I1425581
sS'2848103'
p4222
I1425582
sS'778344'
p4223
I147788
sS'2848105'
p4224
I1425585
sS'2848106'
p4225
I1425586
sS'780402'
p4226
I149836
sS'2848298'
p4227
I1425786
sS'2848299'
p4228
I1425787
sS'2848290'
p4229
I1425778
sS'2848291'
p4230
I1425779
sS'2848292'
p4231
I1425780
sS'2848293'
p4232
I1425781
sS'2848294'
p4233
I1425782
sS'2848295'
p4234
I1425783
sS'779539'
p4235
I149030
sS'2848297'
p4236
I1425785
sS'2848045'
p4237
I1425517
sS'778580'
p4238
I148042
sS'777851'
p4239
I147270
sS'776822'
p4240
I146325
sS'2848568'
p4241
I1426067
sS'2848046'
p4242
I1425518
sS'2848562'
p4243
I1426061
sS'776918'
p4244
I146421
sS'2848560'
p4245
I1426059
sS'2848561'
p4246
I1426060
sS'779163'
p4247
I148641
sS'2848567'
p4248
I1426066
sS'2848564'
p4249
I1426063
sS'776709'
p4250
I146209
sS'2848034'
p4251
I1425504
sS'2848035'
p4252
I1425505
sS'2848036'
p4253
I1425507
sS'2848037'
p4254
I1425508
sS'2848030'
p4255
I1425500
sS'2848031'
p4256
I1425501
sS'2848032'
p4257
I1425502
sS'778087'
p4258
I147518
sS'779294'
p4259
I148778
sS'2848039'
p4260
I1425510
sS'778064'
p4261
I147495
sS'779622'
p4262
I149113
sS'776919'
p4263
I146422
sS'778385'
p4264
I147830
sS'2848484'
p4265
I1425982
sS'779295'
p4266
I148779
sS'776824'
p4267
I146327
sS'778840'
p4268
I148315
sS'778841'
p4269
I148316
sS'778842'
p4270
I148317
sS'778843'
p4271
I148318
sS'778844'
p4272
I148319
sS'778845'
p4273
I148320
sS'778846'
p4274
I148321
sS'778847'
p4275
I148322
sS'778848'
p4276
I148323
sS'778849'
p4277
I148324
sS'2848351'
p4278
I1425841
sS'779453'
p4279
I148939
sS'779731'
p4280
I149228
sS'779730'
p4281
I149227
sS'778736'
p4282
I148209
sS'779732'
p4283
I149229
sS'779735'
p4284
I149232
sS'779734'
p4285
I149231
sS'779737'
p4286
I149234
sS'779736'
p4287
I149233
sS'779739'
p4288
I149236
sS'776825'
p4289
I146328
sS'779352'
p4290
I148836
sS'778012'
p4291
I147443
sS'779358'
p4292
I148842
sS'2848350'
p4293
I1425840
sS'778383'
p4294
I147828
sS'2848486'
p4295
I1425984
sS'778737'
p4296
I148210
sS'777292'
p4297
I146680
sS'778011'
p4298
I147442
sS'779988'
p4299
I149488
sS'779454'
p4300
I148940
sS'779989'
p4301
I149489
sS'779455'
p4302
I148941
sS'778382'
p4303
I147827
sS'2848481'
p4304
I1425979
sS'779456'
p4305
I148942
sS'779457'
p4306
I148944
sS'779450'
p4307
I148936
sS'778010'
p4308
I147441
sS'777631'
p4309
I147039
sS'779451'
p4310
I148937
sS'777173'
p4311
I146554
sS'779429'
p4312
I148915
sS'779428'
p4313
I148914
sS'779399'
p4314
I148885
sS'779398'
p4315
I148884
sS'779397'
p4316
I148883
sS'779396'
p4317
I148882
sS'779427'
p4318
I148913
sS'779426'
p4319
I148912
sS'779421'
p4320
I148907
sS'779392'
p4321
I148878
sS'779391'
p4322
I148877
sS'779390'
p4323
I148876
sS'777487'
p4324
I146892
sS'778017'
p4325
I147448
sS'779986'
p4326
I149486
sS'778260'
p4327
I147698
sS'779987'
p4328
I149487
sS'779169'
p4329
I148648
sS'778380'
p4330
I147825
sS'2848483'
p4331
I1425981
sS'777553'
p4332
I146959
sS'778268'
p4333
I147706
sS'778269'
p4334
I147707
sS'778016'
p4335
I147447
sS'778264'
p4336
I147702
sS'778265'
p4337
I147703
sS'778266'
p4338
I147704
sS'778267'
p4339
I147705
sS'779395'
p4340
I148881
sS'778261'
p4341
I147699
sS'778262'
p4342
I147700
sS'778263'
p4343
I147701
sS'779649'
p4344
I149140
sS'779648'
p4345
I149139
sS'780237'
p4346
I149744
sS'2848482'
p4347
I1425980
sS'778068'
p4348
I147499
sS'778069'
p4349
I147500
sS'779641'
p4350
I149132
sS'779640'
p4351
I149131
sS'779643'
p4352
I149134
sS'779642'
p4353
I149133
sS'779645'
p4354
I149136
sS'779644'
p4355
I149135
sS'779647'
p4356
I149138
sS'779646'
p4357
I149137
sS'777957'
p4358
I147384
sS'777956'
p4359
I147383
sS'777955'
p4360
I147382
sS'777954'
p4361
I147381
sS'777953'
p4362
I147380
sS'777952'
p4363
I147378
sS'777950'
p4364
I147375
sS'776910'
p4365
I146413
sS'777959'
p4366
I147386
sS'777958'
p4367
I147385
sS'778462'
p4368
I147909
sS'778463'
p4369
I147910
sS'778460'
p4370
I147907
sS'778461'
p4371
I147908
sS'778466'
p4372
I147914
sS'778467'
p4373
I147915
sS'779051'
p4374
I148531
sS'778465'
p4375
I147912
sS'776817'
p4376
I146320
sS'778468'
p4377
I147916
sS'778469'
p4378
I147917
sS'2848243'
p4379
I1425729
sS'2848503'
p4380
I1426001
sS'2848242'
p4381
I1425728
sS'778608'
p4382
I148075
sS'778609'
p4383
I148076
sS'2848241'
p4384
I1425727
sS'778602'
p4385
I148069
sS'778603'
p4386
I148070
sS'778600'
p4387
I148067
sS'778601'
p4388
I148068
sS'778606'
p4389
I148073
sS'778607'
p4390
I148074
sS'778604'
p4391
I148071
sS'778605'
p4392
I148072
sS'777481'
p4393
I146886
sS'777480'
p4394
I146885
sS'777483'
p4395
I146888
sS'777482'
p4396
I146887
sS'777485'
p4397
I146890
sS'777484'
p4398
I146889
sS'776617'
p4399
I146117
sS'777486'
p4400
I146891
sS'777489'
p4401
I146894
sS'777488'
p4402
I146893
sS'777711'
p4403
I147119
sS'777710'
p4404
I147118
sS'777713'
p4405
I147121
sS'777712'
p4406
I147120
sS'777715'
p4407
I147123
sS'777714'
p4408
I147122
sS'777717'
p4409
I147125
sS'777716'
p4410
I147124
sS'777719'
p4411
I147127
sS'777718'
p4412
I147126
s.