(dp0
S'776616'
p1
I146116
sS'776448'
p2
I145945
sS'776449'
p3
I145946
sS'776446'
p4
I145943
sS'776447'
p5
I145944
sS'776444'
p6
I145941
sS'776445'
p7
I145942
sS'776442'
p8
I145939
sS'776443'
p9
I145940
sS'776440'
p10
I145937
sS'776441'
p11
I145938
sS'777139'
p12
I146517
sS'777138'
p13
I146516
sS'778114'
p14
I147544
sS'778115'
p15
I147545
sS'778112'
p16
I147542
sS'778113'
p17
I147543
sS'778110'
p18
I147540
sS'778111'
p19
I147541
sS'777131'
p20
I146509
sS'777130'
p21
I146508
sS'777133'
p22
I146511
sS'777132'
p23
I146510
sS'777135'
p24
I146513
sS'777134'
p25
I146512
sS'778118'
p26
I147548
sS'777136'
p27
I146514
sS'776842'
p28
I146345
sS'776843'
p29
I146346
sS'776840'
p30
I146343
sS'776841'
p31
I146344
sS'776846'
p32
I146349
sS'776847'
p33
I146350
sS'776844'
p34
I146347
sS'776845'
p35
I146348
sS'778354'
p36
I147798
sS'776849'
p37
I146352
sS'778288'
p38
I147727
sS'778289'
p39
I147728
sS'776532'
p40
I146030
sS'776533'
p41
I146031
sS'776530'
p42
I146028
sS'776531'
p43
I146029
sS'776536'
p44
I146034
sS'776537'
p45
I146035
sS'776534'
p46
I146032
sS'776535'
p47
I146033
sS'777827'
p48
I147246
sS'777826'
p49
I147245
sS'776538'
p50
I146036
sS'776539'
p51
I146037
sS'777823'
p52
I147242
sS'777822'
p53
I147241
sS'777821'
p54
I147239
sS'777820'
p55
I147238
sS'776668'
p56
I146168
sS'776669'
p57
I146169
sS'780003'
p58
I149503
sS'776663'
p59
I146163
sS'776660'
p60
I146159
sS'776661'
p61
I146160
sS'776666'
p62
I146166
sS'776667'
p63
I146167
sS'776664'
p64
I146164
sS'776665'
p65
I146165
sS'777225'
p66
I146611
sS'777224'
p67
I146610
sS'777227'
p68
I146613
sS'777226'
p69
I146612
sS'777221'
p70
I146607
sS'777220'
p71
I146606
sS'777223'
p72
I146609
sS'777222'
p73
I146608
sS'777229'
p74
I146615
sS'777228'
p75
I146614
sS'779894'
p76
I149392
sS'778116'
p77
I147546
sS'779896'
p78
I149394
sS'779897'
p79
I149395
sS'779890'
p80
I149388
sS'779891'
p81
I149389
sS'779892'
p82
I149390
sS'778117'
p83
I147547
sS'776819'
p84
I146322
sS'779057'
p85
I148536
sS'779898'
p86
I149396
sS'779899'
p87
I149398
sS'779354'
p88
I148838
sS'780177'
p89
I149685
sS'780176'
p90
I149684
sS'780175'
p91
I149683
sS'780174'
p92
I149682
sS'780173'
p93
I149681
sS'780172'
p94
I149680
sS'780171'
p95
I149679
sS'780170'
p96
I149678
sS'779058'
p97
I148537
sS'778082'
p98
I147513
sS'777150'
p99
I146528
sS'780179'
p100
I149687
sS'780178'
p101
I149686
sS'778350'
p102
I147794
sS'779059'
p103
I148538
sS'777137'
p104
I146515
sS'776610'
p105
I146108
sS'778119'
p106
I147549
sS'778402'
p107
I147847
sS'778351'
p108
I147795
sS'778286'
p109
I147725
sS'778403'
p110
I147848
sS'778287'
p111
I147726
sS'778284'
p112
I147723
sS'778285'
p113
I147724
sS'778282'
p114
I147720
sS'780489'
p115
I149930
sS'778283'
p116
I147721
sS'778775'
p117
I148249
sS'776815'
p118
I146318
sS'778280'
p119
I147718
sS'778281'
p120
I147719
sS'778353'
p121
I147797
sS'777127'
p122
I146505
sS'779032'
p123
I148515
sS'779033'
p124
I148516
sS'779030'
p125
I148513
sS'779523'
p126
I149013
sS'778257'
p127
I147695
sS'779524'
p128
I149014
sS'776439'
p129
I145936
sS'779525'
p130
I149015
sS'776438'
p131
I145935
sS'779526'
p132
I149016
sS'778859'
p133
I148336
sS'778858'
p134
I148334
sS'778857'
p135
I148333
sS'778856'
p136
I148332
sS'778855'
p137
I148331
sS'778854'
p138
I148329
sS'778853'
p139
I148328
sS'778852'
p140
I148327
sS'778851'
p141
I148326
sS'778850'
p142
I148325
sS'779708'
p143
I149204
sS'777829'
p144
I147247
sS'779258'
p145
I148740
sS'779259'
p146
I148741
sS'779256'
p147
I148738
sS'779257'
p148
I148739
sS'779254'
p149
I148736
sS'779255'
p150
I148737
sS'779252'
p151
I148734
sS'779253'
p152
I148735
sS'779250'
p153
I148732
sS'779251'
p154
I148733
sS'776925'
p155
I146428
sS'776432'
p156
I145929
sS'776811'
p157
I146314
sS'777825'
p158
I147244
sS'777824'
p159
I147243
sS'777438'
p160
I146839
sS'778596'
p161
I148063
sS'776436'
p162
I145933
sS'776435'
p163
I145932
sS'776434'
p164
I145931
sS'780009'
p165
I149509
sS'779418'
p166
I148904
sS'779419'
p167
I148905
sS'780008'
p168
I149508
sS'779410'
p169
I148896
sS'779411'
p170
I148897
sS'779412'
p171
I148898
sS'779413'
p172
I148899
sS'779414'
p173
I148900
sS'779415'
p174
I148901
sS'779416'
p175
I148902
sS'779417'
p176
I148903
sS'776662'
p177
I146161
sS'776812'
p178
I146315
sS'779098'
p179
I148576
sS'779099'
p180
I148577
sS'780002'
p181
I149502
sS'779094'
p182
I148572
sS'779095'
p183
I148573
sS'779096'
p184
I148574
sS'779097'
p185
I148575
sS'779090'
p186
I148568
sS'779091'
p187
I148569
sS'779092'
p188
I148570
sS'779093'
p189
I148571
sS'779674'
p190
I149169
sS'779675'
p191
I149170
sS'778279'
p192
I147717
sS'778278'
p193
I147716
sS'779670'
p194
I149163
sS'779671'
p195
I149166
sS'779672'
p196
I149167
sS'779673'
p197
I149168
sS'778273'
p198
I147711
sS'778272'
p199
I147710
sS'778271'
p200
I147709
sS'778270'
p201
I147708
sS'778277'
p202
I147715
sS'778276'
p203
I147714
sS'778275'
p204
I147713
sS'778274'
p205
I147712
sS'779076'
p206
I148554
sS'779077'
p207
I148555
sS'779074'
p208
I148552
sS'779075'
p209
I148553
sS'778079'
p210
I147510
sS'778078'
p211
I147509
sS'779070'
p212
I148548
sS'779071'
p213
I148549
sS'778075'
p214
I147506
sS'778074'
p215
I147505
sS'778077'
p216
I147508
sS'778076'
p217
I147507
sS'778070'
p218
I147501
sS'778073'
p219
I147504
sS'778072'
p220
I147503
sS'777922'
p221
I147345
sS'777923'
p222
I147346
sS'777920'
p223
I147343
sS'777921'
p224
I147344
sS'777926'
p225
I147349
sS'777927'
p226
I147350
sS'777924'
p227
I147347
sS'777925'
p228
I147348
sS'780148'
p229
I149655
sS'777928'
p230
I147351
sS'777929'
p231
I147352
sS'778471'
p232
I147919
sS'778470'
p233
I147918
sS'778473'
p234
I147921
sS'778472'
p235
I147920
sS'778475'
p236
I147923
sS'778474'
p237
I147922
sS'778477'
p238
I147925
sS'778476'
p239
I147924
sS'778479'
p240
I147927
sS'778478'
p241
I147926
sS'778714'
p242
I148187
sS'778715'
p243
I148188
sS'778716'
p244
I148189
sS'778618'
p245
I148085
sS'778717'
p246
I148190
sS'778611'
p247
I148078
sS'778610'
p248
I148077
sS'778613'
p249
I148080
sS'778612'
p250
I148079
sS'778615'
p251
I148082
sS'778614'
p252
I148081
sS'778617'
p253
I148084
sS'778616'
p254
I148083
sS'780146'
p255
I149653
sS'778712'
p256
I148185
sS'777445'
p257
I146847
sS'778713'
p258
I148186
sS'777728'
p259
I147137
sS'777729'
p260
I147138
sS'777724'
p261
I147132
sS'777725'
p262
I147133
sS'777726'
p263
I147134
sS'777727'
p264
I147136
sS'777720'
p265
I147128
sS'777721'
p266
I147129
sS'777722'
p267
I147130
sS'777723'
p268
I147131
sS'777104'
p269
I146482
sS'777105'
p270
I146483
sS'777106'
p271
I146484
sS'777107'
p272
I146485
sS'777100'
p273
I146478
sS'777101'
p274
I146479
sS'777102'
p275
I146480
sS'777451'
p276
I146853
sS'776455'
p277
I145952
sS'776454'
p278
I145951
sS'776457'
p279
I145954
sS'776456'
p280
I145953
sS'777108'
p281
I146486
sS'777109'
p282
I146487
sS'776453'
p283
I145950
sS'776452'
p284
I145949
sS'778105'
p285
I147536
sS'778104'
p286
I147535
sS'778107'
p287
I147538
sS'778106'
p288
I147537
sS'778101'
p289
I147533
sS'778100'
p290
I147532
sS'778102'
p291
I147534
sS'776693'
p292
I146193
sS'778109'
p293
I147539
sS'776692'
p294
I146192
sS'776851'
p295
I146354
sS'776850'
p296
I146353
sS'776853'
p297
I146356
sS'778296'
p298
I147735
sS'778291'
p299
I147730
sS'778290'
p300
I147729
sS'778293'
p301
I147732
sS'776856'
p302
I146359
sS'776859'
p303
I146362
sS'776858'
p304
I146361
sS'779893'
p305
I149391
sS'778299'
p306
I147739
sS'778298'
p307
I147738
sS'777588'
p308
I146996
sS'777589'
p309
I146997
sS'776523'
p310
I146021
sS'776522'
p311
I146020
sS'776525'
p312
I146023
sS'776524'
p313
I146022
sS'776527'
p314
I146025
sS'776526'
p315
I146024
sS'777580'
p316
I146987
sS'777581'
p317
I146988
sS'777850'
p318
I147268
sS'777583'
p319
I146991
sS'777584'
p320
I146992
sS'777585'
p321
I146993
sS'777586'
p322
I146994
sS'777855'
p323
I147274
sS'776679'
p324
I146179
sS'776678'
p325
I146178
sS'779140'
p326
I148618
sS'776671'
p327
I146171
sS'776670'
p328
I146170
sS'776673'
p329
I146173
sS'776672'
p330
I146172
sS'776675'
p331
I146175
sS'776674'
p332
I146174
sS'776677'
p333
I146177
sS'776676'
p334
I146176
sS'777210'
p335
I146594
sS'777211'
p336
I146596
sS'777212'
p337
I146597
sS'777213'
p338
I146598
sS'777215'
p339
I146600
sS'777216'
p340
I146601
sS'777217'
p341
I146602
sS'777218'
p342
I146603
sS'777219'
p343
I146605
sS'776698'
p344
I146198
sS'778495'
p345
I147947
sS'779883'
p346
I149381
sS'779882'
p347
I149380
sS'779881'
p348
I149379
sS'779880'
p349
I149378
sS'779887'
p350
I149385
sS'779886'
p351
I149384
sS'779885'
p352
I149383
sS'779884'
p353
I149382
sS'778493'
p354
I147944
sS'779889'
p355
I149387
sS'779888'
p356
I149386
sS'776920'
p357
I146423
sS'778320'
p358
I147764
sS'779148'
p359
I148626
sS'779149'
p360
I148627
sS'780102'
p361
I149606
sS'780103'
p362
I149609
sS'780100'
p363
I149604
sS'780101'
p364
I149605
sS'780106'
p365
I149612
sS'780107'
p366
I149613
sS'780104'
p367
I149610
sS'780105'
p368
I149611
sS'780108'
p369
I149614
sS'780109'
p370
I149615
sS'777169'
p371
I146549
sS'778963'
p372
I148444
sS'780141'
p373
I149648
sS'779452'
p374
I148938
sS'778962'
p375
I148443
sS'778918'
p376
I148399
sS'778919'
p377
I148400
sS'778916'
p378
I148397
sS'778917'
p379
I148398
sS'778914'
p380
I148395
sS'778915'
p381
I148396
sS'778912'
p382
I148393
sS'778913'
p383
I148394
sS'778910'
p384
I148391
sS'778911'
p385
I148392
sS'780292'
p386
I149800
sS'776809'
p387
I146312
sS'780290'
p388
I149798
sS'780291'
p389
I149799
sS'780296'
p390
I149804
sS'780297'
p391
I149805
sS'780294'
p392
I149802
sS'780298'
p393
I149806
sS'780299'
p394
I149807
sS'778045'
p395
I147476
sS'777974'
p396
I147403
sS'777977'
p397
I147406
sS'777976'
p398
I147405
sS'777607'
p399
I147015
sS'777606'
p400
I147014
sS'778828'
p401
I148303
sS'778829'
p402
I148304
sS'777605'
p403
I147013
sS'777549'
p404
I146955
sS'778822'
p405
I148297
sS'778823'
p406
I148298
sS'778820'
p407
I148295
sS'778821'
p408
I148296
sS'778826'
p409
I148301
sS'778827'
p410
I148302
sS'778824'
p411
I148299
sS'778825'
p412
I148300
sS'779719'
p413
I149216
sS'779718'
p414
I149215
sS'779249'
p415
I148731
sS'779248'
p416
I148730
sS'779245'
p417
I148727
sS'779244'
p418
I148726
sS'779247'
p419
I148729
sS'779246'
p420
I148728
sS'779241'
p421
I148723
sS'779240'
p422
I148722
sS'779243'
p423
I148725
sS'779242'
p424
I148724
sS'778974'
p425
I148455
sS'778975'
p426
I148456
sS'778976'
p427
I148457
sS'780436'
p428
I149870
sS'780437'
p429
I149871
sS'780434'
p430
I149868
sS'778977'
p431
I148458
sS'780433'
p432
I149867
sS'780430'
p433
I149865
sS'780431'
p434
I149866
sS'778970'
p435
I148451
sS'780438'
p436
I149872
sS'778971'
p437
I148452
sS'778972'
p438
I148453
sS'778973'
p439
I148454
sS'779407'
p440
I148893
sS'779406'
p441
I148892
sS'779405'
p442
I148891
sS'779404'
p443
I148890
sS'779403'
p444
I148889
sS'779402'
p445
I148888
sS'779401'
p446
I148887
sS'779400'
p447
I148886
sS'779409'
p448
I148895
sS'779408'
p449
I148894
sS'778660'
p450
I148133
sS'776803'
p451
I146306
sS'779089'
p452
I148567
sS'779088'
p453
I148566
sS'779083'
p454
I148561
sS'779082'
p455
I148560
sS'779081'
p456
I148559
sS'779080'
p457
I148558
sS'779087'
p458
I148565
sS'779086'
p459
I148564
sS'779085'
p460
I148563
sS'779084'
p461
I148562
sS'779663'
p462
I149156
sS'779662'
p463
I149155
sS'779661'
p464
I149154
sS'779660'
p465
I149152
sS'779667'
p466
I149160
sS'779666'
p467
I149159
sS'779665'
p468
I149158
sS'779664'
p469
I149157
sS'779669'
p470
I149162
sS'779668'
p471
I149161
sS'776637'
p472
I146137
sS'778048'
p473
I147479
sS'778049'
p474
I147480
sS'778598'
p475
I148065
sS'778599'
p476
I148066
sS'779061'
p477
I148540
sS'779060'
p478
I148539
sS'779063'
p479
I148542
sS'779062'
p480
I148541
sS'778040'
p481
I147471
sS'778041'
p482
I147472
sS'778042'
p483
I147473
sS'778043'
p484
I147474
sS'779069'
p485
I148547
sS'778597'
p486
I148064
sS'778594'
p487
I148060
sS'778047'
p488
I147478
sS'777931'
p489
I147354
sS'777933'
p490
I147356
sS'778142'
p491
I147573
sS'777935'
p492
I147358
sS'777934'
p493
I147357
sS'777937'
p494
I147360
sS'777936'
p495
I147359
sS'777938'
p496
I147361
sS'776636'
p497
I146136
sS'778144'
p498
I147575
sS'778448'
p499
I147893
sS'777784'
p500
I147195
sS'778444'
p501
I147889
sS'778445'
p502
I147890
sS'778446'
p503
I147891
sS'777785'
p504
I147196
sS'778440'
p505
I147885
sS'778441'
p506
I147886
sS'778442'
p507
I147887
sS'778443'
p508
I147888
sS'778625'
p509
I148092
sS'778626'
p510
I148094
sS'778621'
p511
I148088
sS'778623'
p512
I148090
sS'778628'
p513
I148096
sS'778629'
p514
I148097
sS'778394'
p515
I147839
sS'777993'
p516
I147423
sS'778395'
p517
I147840
sS'779922'
p518
I149423
sS'778398'
p519
I147843
sS'777739'
p520
I147148
sS'777738'
p521
I147147
sS'778399'
p522
I147844
sS'777733'
p523
I147142
sS'777732'
p524
I147141
sS'777731'
p525
I147140
sS'777737'
p526
I147146
sS'777736'
p527
I147145
sS'777735'
p528
I147144
sS'777734'
p529
I147143
sS'776468'
p530
I145966
sS'776469'
p531
I145967
sS'777447'
p532
I146849
sS'777110'
p533
I146488
sS'777441'
p534
I146842
sS'777440'
p535
I146841
sS'777443'
p536
I146845
sS'777442'
p537
I146844
sS'776460'
p538
I145957
sS'776461'
p539
I145958
sS'776462'
p540
I145959
sS'777118'
p541
I146496
sS'777449'
p542
I146851
sS'777448'
p543
I146850
sS'776466'
p544
I145964
sS'776467'
p545
I145965
sS'778130'
p546
I147560
sS'778131'
p547
I147561
sS'778132'
p548
I147562
sS'778133'
p549
I147563
sS'778134'
p550
I147564
sS'778135'
p551
I147565
sS'778136'
p552
I147566
sS'778137'
p553
I147567
sS'778138'
p554
I147568
sS'778139'
p555
I147570
sS'777597'
p556
I147005
sS'777596'
p557
I147004
sS'777595'
p558
I147003
sS'777594'
p559
I147002
sS'777593'
p560
I147001
sS'777592'
p561
I147000
sS'777591'
p562
I146999
sS'777590'
p563
I146998
sS'776864'
p564
I146367
sS'776865'
p565
I146368
sS'776866'
p566
I146369
sS'776867'
p567
I146370
sS'776860'
p568
I146363
sS'776861'
p569
I146364
sS'777599'
p570
I147007
sS'777598'
p571
I147006
sS'777849'
p572
I147267
sS'776518'
p573
I146016
sS'776519'
p574
I146017
sS'777841'
p575
I147259
sS'776515'
p576
I146013
sS'776516'
p577
I146014
sS'776517'
p578
I146015
sS'777845'
p579
I147263
sS'776511'
p580
I146009
sS'776512'
p581
I146010
sS'776513'
p582
I146011
sS'776886'
p583
I146389
sS'776887'
p584
I146390
sS'776884'
p585
I146387
sS'776885'
p586
I146388
sS'776882'
p587
I146385
sS'776883'
p588
I146386
sS'776880'
p589
I146383
sS'776881'
p590
I146384
sS'776888'
p591
I146391
sS'776889'
p592
I146392
sS'777209'
p593
I146593
sS'777208'
p594
I146592
sS'777207'
p595
I146591
sS'777206'
p596
I146590
sS'777205'
p597
I146589
sS'777204'
p598
I146588
sS'777203'
p599
I146587
sS'777202'
p600
I146586
sS'777201'
p601
I146584
sS'777200'
p602
I146583
sS'779878'
p603
I149376
sS'779879'
p604
I149377
sS'779876'
p605
I149374
sS'779877'
p606
I149375
sS'779874'
p607
I149373
sS'779872'
p608
I149371
sS'779873'
p609
I149372
sS'779871'
p610
I149369
sS'780111'
p611
I149617
sS'777254'
p612
I146640
sS'780113'
p613
I149619
sS'780112'
p614
I149618
sS'780115'
p615
I149621
sS'780114'
p616
I149620
sS'780117'
p617
I149624
sS'777255'
p618
I146641
sS'780119'
p619
I149626
sS'780118'
p620
I149625
sS'777524'
p621
I146930
sS'777995'
p622
I147425
sS'777525'
p623
I146931
sS'777522'
p624
I146928
sS'779371'
p625
I148855
sS'777252'
p626
I146638
sS'777253'
p627
I146639
sS'776644'
p628
I146144
sS'776645'
p629
I146145
sS'776646'
p630
I146146
sS'776647'
p631
I146147
sS'776640'
p632
I146140
sS'776641'
p633
I146141
sS'776642'
p634
I146142
sS'776643'
p635
I146143
sS'779982'
p636
I149482
sS'779983'
p637
I149483
sS'779980'
p638
I149480
sS'779981'
p639
I149481
sS'776648'
p640
I146148
sS'776649'
p641
I146149
sS'779984'
p642
I149484
sS'779985'
p643
I149485
sS'777444'
p644
I146846
sS'778237'
p645
I147671
sS'777390'
p646
I146788
sS'776374'
p647
I145870
sS'778909'
p648
I148390
sS'778908'
p649
I148389
sS'779846'
p650
I149343
sS'778905'
p651
I148386
sS'778904'
p652
I148385
sS'778907'
p653
I148388
sS'778906'
p654
I148387
sS'778901'
p655
I148382
sS'778900'
p656
I148381
sS'778903'
p657
I148384
sS'778902'
p658
I148383
sS'780281'
p659
I149788
sS'780280'
p660
I149787
sS'780283'
p661
I149790
sS'780282'
p662
I149789
sS'780285'
p663
I149792
sS'780284'
p664
I149791
sS'780287'
p665
I149794
sS'780286'
p666
I149793
sS'780289'
p667
I149797
sS'780288'
p668
I149796
sS'779925'
p669
I149425
sS'779926'
p670
I149426
sS'779927'
p671
I149427
sS'779698'
p672
I149194
sS'779920'
p673
I149421
sS'779699'
p674
I149195
sS'778839'
p675
I148314
sS'778838'
p676
I148313
sS'777098'
p677
I146476
sS'778355'
p678
I147799
sS'778831'
p679
I148306
sS'778830'
p680
I148305
sS'778833'
p681
I148308
sS'777099'
p682
I146477
sS'778835'
p683
I148310
sS'778834'
p684
I148309
sS'778837'
p685
I148312
sS'778836'
p686
I148311
sS'779278'
p687
I148760
sS'779279'
p688
I148762
sS'778425'
p689
I147870
sS'779270'
p690
I148752
sS'779271'
p691
I148753
sS'779272'
p692
I148754
sS'779273'
p693
I148755
sS'779274'
p694
I148756
sS'779275'
p695
I148757
sS'779276'
p696
I148758
sS'779277'
p697
I148759
sS'779690'
p698
I149185
sS'779691'
p699
I149186
sS'780425'
p700
I149860
sS'780424'
p701
I149859
sS'780427'
p702
I149862
sS'780426'
p703
I149861
sS'780421'
p704
I149856
sS'780420'
p705
I149855
sS'780423'
p706
I149858
sS'780422'
p707
I149857
sS'780429'
p708
I149864
sS'780428'
p709
I149863
sS'777986'
p710
I147416
sS'779472'
p711
I148961
sS'779473'
p712
I148962
sS'779470'
p713
I148958
sS'779471'
p714
I148959
sS'779476'
p715
I148965
sS'779477'
p716
I148966
sS'779474'
p717
I148963
sS'779475'
p718
I148964
sS'779478'
p719
I148967
sS'779479'
p720
I148968
sS'778581'
p721
I148044
sS'778710'
p722
I148183
sS'778580'
p723
I148042
sS'778583'
p724
I148046
sS'776828'
p725
I146331
sS'779505'
p726
I148994
sS'777804'
p727
I147215
sS'779502'
p728
I148991
sS'777551'
p729
I146957
sS'779503'
p730
I148992
sS'777806'
p731
I147217
sS'779500'
p732
I148989
sS'777801'
p733
I147212
sS'779501'
p734
I148990
sS'777556'
p735
I146962
sS'778057'
p736
I147488
sS'778056'
p737
I147487
sS'778055'
p738
I147486
sS'778054'
p739
I147485
sS'778053'
p740
I147484
sS'778052'
p741
I147483
sS'778051'
p742
I147482
sS'778050'
p743
I147481
sS'779696'
p744
I149191
sS'779697'
p745
I149193
sS'779694'
p746
I149189
sS'779695'
p747
I149190
sS'779692'
p748
I149187
sS'779693'
p749
I149188
sS'778059'
p750
I147490
sS'778058'
p751
I147489
sS'778589'
p752
I148054
sS'778588'
p753
I148052
sS'779053'
p754
I148532
sS'779054'
p755
I148533
sS'779055'
p756
I148534
sS'779508'
p757
I148997
sS'779509'
p758
I148999
sS'779506'
p759
I148995
sS'779507'
p760
I148996
sS'779504'
p761
I148993
sS'778582'
p762
I148045
sS'778585'
p763
I148048
sS'778584'
p764
I148047
sS'778587'
p765
I148051
sS'778586'
p766
I148049
sS'776823'
p767
I146326
sS'777908'
p768
I147331
sS'777909'
p769
I147332
sS'777904'
p770
I147327
sS'777905'
p771
I147328
sS'777906'
p772
I147329
sS'777907'
p773
I147330
sS'777900'
p774
I147321
sS'777901'
p775
I147322
sS'777902'
p776
I147323
sS'777903'
p777
I147325
sS'779182'
p778
I148661
sS'779183'
p779
I148662
sS'779180'
p780
I148659
sS'778458'
p781
I147905
sS'779186'
p782
I148667
sS'779187'
p783
I148668
sS'779184'
p784
I148663
sS'779185'
p785
I148665
sS'778453'
p786
I147899
sS'778452'
p787
I147898
sS'779188'
p788
I148669
sS'778450'
p789
I147896
sS'778457'
p790
I147904
sS'778456'
p791
I147903
sS'778455'
p792
I147902
sS'778454'
p793
I147900
sS'778633'
p794
I148101
sS'778632'
p795
I148100
sS'778631'
p796
I148099
sS'777697'
p797
I147105
sS'778637'
p798
I148106
sS'778636'
p799
I148105
sS'777692'
p800
I147100
sS'777693'
p801
I147101
sS'778639'
p802
I148108
sS'778638'
p803
I148107
sS'777698'
p804
I147106
sS'777699'
p805
I147107
sS'776603'
p806
I146101
sS'776604'
p807
I146102
sS'776605'
p808
I146103
sS'776606'
p809
I146104
sS'776607'
p810
I146105
sS'778459'
p811
I147906
sS'779181'
p812
I148660
sS'776609'
p813
I146107
sS'777470'
p814
I146873
sS'777471'
p815
I146874
sS'777472'
p816
I146875
sS'777473'
p817
I146876
sS'777474'
p818
I146878
sS'777475'
p819
I146879
sS'777476'
p820
I146880
sS'777477'
p821
I146881
sS'777478'
p822
I146882
sS'777479'
p823
I146884
sS'778129'
p824
I147559
sS'778128'
p825
I147558
sS'778127'
p826
I147557
sS'778126'
p827
I147556
sS'778125'
p828
I147555
sS'778124'
p829
I147554
sS'778123'
p830
I147553
sS'778122'
p831
I147552
sS'778121'
p832
I147551
sS'778120'
p833
I147550
sS'777874'
p834
I147294
sS'777875'
p835
I147295
sS'777876'
p836
I147296
sS'777877'
p837
I147297
sS'777870'
p838
I147290
sS'777871'
p839
I147291
sS'777872'
p840
I147292
sS'777873'
p841
I147293
sS'776873'
p842
I146376
sS'776872'
p843
I146375
sS'776871'
p844
I146374
sS'776870'
p845
I146373
sS'777878'
p846
I147298
sS'777879'
p847
I147299
sS'776875'
p848
I146378
sS'776874'
p849
I146377
sS'776509'
p850
I146007
sS'776508'
p851
I146006
sS'776503'
p852
I146001
sS'776502'
p853
I146000
sS'776501'
p854
I145999
sS'776500'
p855
I145998
sS'776507'
p856
I146005
sS'776506'
p857
I146004
sS'776505'
p858
I146003
sS'776504'
p859
I146002
sS'776895'
p860
I146398
sS'776894'
p861
I146397
sS'776897'
p862
I146400
sS'776896'
p863
I146399
sS'776891'
p864
I146394
sS'776890'
p865
I146393
sS'776893'
p866
I146396
sS'776892'
p867
I146395
sS'776899'
p868
I146402
sS'777696'
p869
I147104
sS'777278'
p870
I146665
sS'777273'
p871
I146659
sS'777270'
p872
I146656
sS'777271'
p873
I146657
sS'777276'
p874
I146662
sS'777277'
p875
I146663
sS'777274'
p876
I146660
sS'777275'
p877
I146661
sS'779868'
p878
I149368
sS'779865'
p879
I149365
sS'779864'
p880
I149363
sS'779867'
p881
I149367
sS'779866'
p882
I149366
sS'779861'
p883
I149359
sS'779860'
p884
I149358
sS'779863'
p885
I149361
sS'779862'
p886
I149360
sS'776477'
p887
I145975
sS'776476'
p888
I145974
sS'776475'
p889
I145973
sS'776474'
p890
I145972
sS'776473'
p891
I145971
sS'776472'
p892
I145970
sS'776471'
p893
I145969
sS'776470'
p894
I145968
sS'776479'
p895
I145977
sS'776478'
p896
I145976
sS'780128'
p897
I149635
sS'780129'
p898
I149636
sS'780124'
p899
I149631
sS'780125'
p900
I149632
sS'780126'
p901
I149633
sS'780127'
p902
I149634
sS'780120'
p903
I149627
sS'780121'
p904
I149628
sS'780122'
p905
I149629
sS'780123'
p906
I149630
sS'777306'
p907
I146696
sS'777307'
p908
I146698
sS'777304'
p909
I146694
sS'777305'
p910
I146695
sS'777302'
p911
I146691
sS'777303'
p912
I146693
sS'777300'
p913
I146689
sS'777301'
p914
I146690
sS'777308'
p915
I146699
sS'777309'
p916
I146700
sS'778228'
p917
I147662
sS'778229'
p918
I147663
sS'778738'
p919
I148211
sS'776653'
p920
I146152
sS'779998'
p921
I149498
sS'778739'
p922
I148212
sS'776657'
p923
I146156
sS'776656'
p924
I146155
sS'776655'
p925
I146154
sS'776654'
p926
I146153
sS'779991'
p927
I149491
sS'779990'
p928
I149490
sS'776659'
p929
I146158
sS'776658'
p930
I146157
sS'779995'
p931
I149495
sS'779994'
p932
I149494
sS'779997'
p933
I149497
sS'779996'
p934
I149496
sS'776706'
p935
I146206
sS'778732'
p936
I148205
sS'778733'
p937
I148206
sS'777983'
p938
I147413
sS'778730'
p939
I148203
sS'779709'
p940
I149205
sS'778938'
p941
I148419
sS'778939'
p942
I148420
sS'778731'
p943
I148204
sS'778930'
p944
I148411
sS'778931'
p945
I148412
sS'778932'
p946
I148413
sS'778933'
p947
I148414
sS'778934'
p948
I148415
sS'778935'
p949
I148416
sS'778936'
p950
I148417
sS'778225'
p951
I147659
sS'779704'
p952
I149200
sS'778703'
p953
I148176
sS'778734'
p954
I148207
sS'779705'
p955
I149201
sS'778735'
p956
I148208
sS'779706'
p957
I149202
sS'779707'
p958
I149203
sS'779700'
p959
I149196
sS'779701'
p960
I149197
sS'780256'
p961
I149763
sS'780257'
p962
I149764
sS'780254'
p963
I149761
sS'780255'
p964
I149762
sS'780252'
p965
I149759
sS'779702'
p966
I149198
sS'780250'
p967
I149757
sS'780251'
p968
I149758
sS'779703'
p969
I149199
sS'780258'
p970
I149765
sS'780259'
p971
I149766
sS'778804'
p972
I148279
sS'778805'
p973
I148280
sS'778806'
p974
I148281
sS'778807'
p975
I148282
sS'778800'
p976
I148275
sS'778801'
p977
I148276
sS'778802'
p978
I148277
sS'778803'
p979
I148278
sS'778808'
p980
I148283
sS'778809'
p981
I148284
sS'777243'
p982
I146629
sS'776804'
p983
I146307
sS'777634'
p984
I147042
sS'780093'
p985
I149597
sS'780410'
p986
I149844
sS'780411'
p987
I149845
sS'780412'
p988
I149847
sS'780413'
p989
I149848
sS'780414'
p990
I149849
sS'780415'
p991
I149850
sS'780416'
p992
I149851
sS'780417'
p993
I149852
sS'780418'
p994
I149853
sS'780419'
p995
I149854
sS'777991'
p996
I147421
sS'777990'
p997
I147420
sS'777625'
p998
I147033
sS'779461'
p999
I148949
sS'779460'
p1000
I148948
sS'779463'
p1001
I148951
sS'779462'
p1002
I148950
sS'779465'
p1003
I148953
sS'779464'
p1004
I148952
sS'779467'
p1005
I148955
sS'779466'
p1006
I148954
sS'779469'
p1007
I148957
sS'779468'
p1008
I148956
sS'777994'
p1009
I147424
sS'778952'
p1010
I148433
sS'778953'
p1011
I148434
sS'778950'
p1012
I148431
sS'779267'
p1013
I148749
sS'779266'
p1014
I148748
sS'779265'
p1015
I148747
sS'780097'
p1016
I149601
sS'779263'
p1017
I148745
sS'779262'
p1018
I148744
sS'779261'
p1019
I148743
sS'779260'
p1020
I148742
sS'778956'
p1021
I148437
sS'779269'
p1022
I148751
sS'778957'
p1023
I148438
sS'778022'
p1024
I147453
sS'778023'
p1025
I147454
sS'778020'
p1026
I147451
sS'778021'
p1027
I147452
sS'778026'
p1028
I147457
sS'779688'
p1029
I149183
sS'778024'
p1030
I147455
sS'778025'
p1031
I147456
sS'779685'
p1032
I149180
sS'779684'
p1033
I149179
sS'778028'
p1034
I147459
sS'778029'
p1035
I147460
sS'779681'
p1036
I149176
sS'779680'
p1037
I149175
sS'779683'
p1038
I149178
sS'779682'
p1039
I149177
sS'780155'
p1040
I149662
sS'779519'
p1041
I149009
sS'779518'
p1042
I149008
sS'779048'
p1043
I148530
sS'779047'
p1044
I148529
sS'779514'
p1045
I149004
sS'779517'
p1046
I149007
sS'779044'
p1047
I148528
sS'779043'
p1048
I148527
sS'779042'
p1049
I148526
sS'779041'
p1050
I148525
sS'779040'
p1051
I148524
sS'777919'
p1052
I147342
sS'777918'
p1053
I147341
sS'777913'
p1054
I147336
sS'777912'
p1055
I147335
sS'777911'
p1056
I147334
sS'777910'
p1057
I147333
sS'777917'
p1058
I147340
sS'777916'
p1059
I147339
sS'777915'
p1060
I147338
sS'777914'
p1061
I147337
sS'779191'
p1062
I148672
sS'779190'
p1063
I148671
sS'779193'
p1064
I148674
sS'779192'
p1065
I148673
sS'779195'
p1066
I148676
sS'779194'
p1067
I148675
sS'779197'
p1068
I148678
sS'777570'
p1069
I146976
sS'779199'
p1070
I148680
sS'779198'
p1071
I148679
sS'780152'
p1072
I149659
sS'777573'
p1073
I146980
sS'777683'
p1074
I147091
sS'777682'
p1075
I147090
sS'777681'
p1076
I147089
sS'777680'
p1077
I147088
sS'777687'
p1078
I147095
sS'777686'
p1079
I147094
sS'777685'
p1080
I147093
sS'777684'
p1081
I147092
sS'776572'
p1082
I146070
sS'777689'
p1083
I147097
sS'777688'
p1084
I147096
sS'777574'
p1085
I146981
sS'778480'
p1086
I147929
sS'778481'
p1087
I147930
sS'778482'
p1088
I147931
sS'778483'
p1089
I147932
sS'778484'
p1090
I147933
sS'778485'
p1091
I147935
sS'778338'
p1092
I147782
sS'778339'
p1093
I147783
sS'778336'
p1094
I147780
sS'778489'
p1095
I147939
sS'778334'
p1096
I147778
sS'778335'
p1097
I147779
sS'778332'
p1098
I147776
sS'778333'
p1099
I147777
sS'778330'
p1100
I147774
sS'778331'
p1101
I147775
sS'777815'
p1102
I147230
sS'778578'
p1103
I148040
sS'777469'
p1104
I146872
sS'777468'
p1105
I146871
sS'777467'
p1106
I146870
sS'777466'
p1107
I146869
sS'777465'
p1108
I146868
sS'777464'
p1109
I146867
sS'777463'
p1110
I146866
sS'777462'
p1111
I146865
sS'777461'
p1112
I146864
sS'777460'
p1113
I146863
sS'778158'
p1114
I147590
sS'778159'
p1115
I147591
sS'778152'
p1116
I147584
sS'778153'
p1117
I147585
sS'778150'
p1118
I147582
sS'778151'
p1119
I147583
sS'778156'
p1120
I147588
sS'778157'
p1121
I147589
sS'778154'
p1122
I147586
sS'778155'
p1123
I147587
sS'777863'
p1124
I147283
sS'777862'
p1125
I147282
sS'777861'
p1126
I147280
sS'777860'
p1127
I147279
sS'777867'
p1128
I147287
sS'777866'
p1129
I147286
sS'777865'
p1130
I147285
sS'777864'
p1131
I147284
sS'777869'
p1132
I147289
sS'777868'
p1133
I147288
sS'778570'
p1134
I148032
sS'778571'
p1135
I148033
sS'776802'
p1136
I146305
sS'778060'
p1137
I147491
sS'778572'
p1138
I148034
sS'778573'
p1139
I148035
sS'776879'
p1140
I146382
sS'777269'
p1141
I146655
sS'777268'
p1142
I146654
sS'776878'
p1143
I146381
sS'777261'
p1144
I146647
sS'777260'
p1145
I146646
sS'777263'
p1146
I146649
sS'777262'
p1147
I146648
sS'777265'
p1148
I146651
sS'777264'
p1149
I146650
sS'777267'
p1150
I146653
sS'777266'
p1151
I146652
sS'776792'
p1152
I146295
sS'776793'
p1153
I146296
sS'776790'
p1154
I146293
sS'776791'
p1155
I146294
sS'776796'
p1156
I146299
sS'776797'
p1157
I146300
sS'776794'
p1158
I146297
sS'776795'
p1159
I146298
sS'779850'
p1160
I149346
sS'779851'
p1161
I149347
sS'776798'
p1162
I146301
sS'776799'
p1163
I146302
sS'779854'
p1164
I149350
sS'779855'
p1165
I149351
sS'779856'
p1166
I149352
sS'779857'
p1167
I149354
sS'776402'
p1168
I145898
sS'776403'
p1169
I145899
sS'776400'
p1170
I145896
sS'776401'
p1171
I145897
sS'776406'
p1172
I145902
sS'776407'
p1173
I145903
sS'776404'
p1174
I145900
sS'776405'
p1175
I145901
sS'776408'
p1176
I145904
sS'776409'
p1177
I145905
sS'776617'
p1178
I146117
sS'780139'
p1179
I149646
sS'780138'
p1180
I149645
sS'780133'
p1181
I149640
sS'776877'
p1182
I146380
sS'780131'
p1183
I149638
sS'780130'
p1184
I149637
sS'780137'
p1185
I149644
sS'780136'
p1186
I149643
sS'780135'
p1187
I149642
sS'776876'
p1188
I146379
sS'777315'
p1189
I146707
sS'777314'
p1190
I146706
sS'777317'
p1191
I146709
sS'777316'
p1192
I146708
sS'777311'
p1193
I146702
sS'777310'
p1194
I146701
sS'777313'
p1195
I146705
sS'777312'
p1196
I146704
sS'780483'
p1197
I149924
sS'777319'
p1198
I146711
sS'777318'
p1199
I146710
sS'778927'
p1200
I148408
sS'778926'
p1201
I148407
sS'778925'
p1202
I148406
sS'778924'
p1203
I148405
sS'778923'
p1204
I148404
sS'778922'
p1205
I148403
sS'778921'
p1206
I148402
sS'778920'
p1207
I148401
sS'778929'
p1208
I148410
sS'778928'
p1209
I148409
sS'778954'
p1210
I148435
sS'776718'
p1211
I146218
sS'780245'
p1212
I149752
sS'780244'
p1213
I149751
sS'780247'
p1214
I149754
sS'777370'
p1215
I146765
sS'780241'
p1216
I149748
sS'780240'
p1217
I149747
sS'780243'
p1218
I149750
sS'780242'
p1219
I149749
sS'780249'
p1220
I149756
sS'780248'
p1221
I149755
sS'778813'
p1222
I148288
sS'778812'
p1223
I148287
sS'778811'
p1224
I148286
sS'778810'
p1225
I148285
sS'778817'
p1226
I148292
sS'778816'
p1227
I148291
sS'778815'
p1228
I148290
sS'778814'
p1229
I148289
sS'778819'
p1230
I148294
sS'778818'
p1231
I148293
sS'780397'
p1232
I149831
sS'780396'
p1233
I149830
sS'780395'
p1234
I149829
sS'776710'
p1235
I146210
sS'780399'
p1236
I149833
sS'779312'
p1237
I148796
sS'776711'
p1238
I146211
sS'776898'
p1239
I146401
sS'779902'
p1240
I149401
sS'780409'
p1241
I149843
sS'779903'
p1242
I149402
sS'780407'
p1243
I149841
sS'780406'
p1244
I149840
sS'780405'
p1245
I149839
sS'780404'
p1246
I149838
sS'780403'
p1247
I149837
sS'777177'
p1248
I146558
sS'780401'
p1249
I149835
sS'780400'
p1250
I149834
sS'776365'
p1251
I145861
sS'779901'
p1252
I149400
sS'779906'
p1253
I149407
sS'779907'
p1254
I149408
sS'779458'
p1255
I148945
sS'779459'
p1256
I148947
sS'779328'
p1257
I148812
sS'779329'
p1258
I148813
sS'779326'
p1259
I148810
sS'779327'
p1260
I148811
sS'779324'
p1261
I148808
sS'779325'
p1262
I148809
sS'779322'
p1263
I148806
sS'779323'
p1264
I148807
sS'779320'
p1265
I148804
sS'779321'
p1266
I148805
sS'779908'
p1267
I149410
sS'779909'
p1268
I149411
sS'777179'
p1269
I146560
sS'777178'
p1270
I146559
sS'779212'
p1271
I148693
sS'779213'
p1272
I148694
sS'779210'
p1273
I148691
sS'779211'
p1274
I148692
sS'779216'
p1275
I148697
sS'779217'
p1276
I148698
sS'779214'
p1277
I148695
sS'779215'
p1278
I148696
sS'779218'
p1279
I148699
sS'779219'
p1280
I148700
sS'778031'
p1281
I147462
sS'778030'
p1282
I147461
sS'778033'
p1283
I147464
sS'778032'
p1284
I147463
sS'778035'
p1285
I147466
sS'778034'
p1286
I147465
sS'778037'
p1287
I147468
sS'778036'
p1288
I147467
sS'778039'
p1289
I147470
sS'778038'
p1290
I147469
sS'779679'
p1291
I149174
sS'779528'
p1292
I149018
sS'779529'
p1293
I149019
sS'779038'
p1294
I148521
sS'779039'
p1295
I148523
sS'779520'
p1296
I149010
sS'779521'
p1297
I149011
sS'779522'
p1298
I149012
sS'779031'
p1299
I148514
sS'779036'
p1300
I148519
sS'779037'
p1301
I148520
sS'779034'
p1302
I148517
sS'779035'
p1303
I148518
sS'777766'
p1304
I147176
sS'779072'
p1305
I148550
sS'779073'
p1306
I148551
sS'778224'
p1307
I147658
sS'777678'
p1308
I147086
sS'777679'
p1309
I147087
sS'777676'
p1310
I147084
sS'777677'
p1311
I147085
sS'777674'
p1312
I147082
sS'777675'
p1313
I147083
sS'777672'
p1314
I147080
sS'777673'
p1315
I147081
sS'777670'
p1316
I147078
sS'777671'
p1317
I147079
sS'779146'
p1318
I148624
sS'779147'
p1319
I148625
sS'779144'
p1320
I148622
sS'779145'
p1321
I148623
sS'779142'
p1322
I148620
sS'779143'
p1323
I148621
sS'778499'
p1324
I147952
sS'778498'
p1325
I147951
sS'778497'
p1326
I147950
sS'778496'
p1327
I147949
sS'778327'
p1328
I147771
sS'778494'
p1329
I147946
sS'778321'
p1330
I147765
sS'778492'
p1331
I147943
sS'778491'
p1332
I147941
sS'778490'
p1333
I147940
sS'779078'
p1334
I148556
sS'777283'
p1335
I146670
sS'779079'
p1336
I148557
sS'776379'
p1337
I145875
sS'777418'
p1338
I146818
sS'777419'
p1339
I146819
sS'777281'
p1340
I146668
sS'777412'
p1341
I146812
sS'777413'
p1342
I146813
sS'777410'
p1343
I146810
sS'777411'
p1344
I146811
sS'777416'
p1345
I146816
sS'777417'
p1346
I146817
sS'777414'
p1347
I146814
sS'777415'
p1348
I146815
sS'778149'
p1349
I147581
sS'778148'
p1350
I147580
sS'777788'
p1351
I147199
sS'777789'
p1352
I147200
sS'779395'
p1353
I148881
sS'776375'
p1354
I145871
sS'777782'
p1355
I147193
sS'777783'
p1356
I147194
sS'777780'
p1357
I147191
sS'777781'
p1358
I147192
sS'777786'
p1359
I147197
sS'777787'
p1360
I147198
sS'778147'
p1361
I147579
sS'778146'
p1362
I147578
sS'776377'
p1363
I145873
sS'780151'
p1364
I149658
sS'777898'
p1365
I147318
sS'777899'
p1366
I147320
sS'777896'
p1367
I147316
sS'777897'
p1368
I147317
sS'777894'
p1369
I147314
sS'777895'
p1370
I147315
sS'777892'
p1371
I147312
sS'777893'
p1372
I147313
sS'777890'
p1373
I147310
sS'777891'
p1374
I147311
sS'778891'
p1375
I148372
sS'776372'
p1376
I145868
sS'776373'
p1377
I145869
sS'777526'
p1378
I146932
sS'777527'
p1379
I146933
sS'777256'
p1380
I146642
sS'777257'
p1381
I146643
sS'777250'
p1382
I146636
sS'777523'
p1383
I146929
sS'777520'
p1384
I146926
sS'777521'
p1385
I146927
sS'777259'
p1386
I146645
sS'777528'
p1387
I146934
sS'777529'
p1388
I146935
sS'777096'
p1389
I146474
sS'777097'
p1390
I146475
sS'779845'
p1391
I149342
sS'777095'
p1392
I146473
sS'779843'
p1393
I149340
sS'779842'
p1394
I149339
sS'779841'
p1395
I149338
sS'779840'
p1396
I149337
sS'776622'
p1397
I146122
sS'779844'
p1398
I149341
sS'779849'
p1399
I149345
sS'779848'
p1400
I149344
sS'776781'
p1401
I146284
sS'776780'
p1402
I146283
sS'776783'
p1403
I146286
sS'776782'
p1404
I146285
sS'776785'
p1405
I146288
sS'776784'
p1406
I146287
sS'776787'
p1407
I146290
sS'776786'
p1408
I146289
sS'776789'
p1409
I146292
sS'776788'
p1410
I146291
sS'776621'
p1411
I146121
sS'776411'
p1412
I145908
sS'776410'
p1413
I145906
sS'776413'
p1414
I145910
sS'776412'
p1415
I145909
sS'776415'
p1416
I145912
sS'776414'
p1417
I145911
sS'776417'
p1418
I145914
sS'776416'
p1419
I145913
sS'776419'
p1420
I145916
sS'776418'
p1421
I145915
sS'777320'
p1422
I146712
sS'777321'
p1423
I146713
sS'777322'
p1424
I146714
sS'777323'
p1425
I146715
sS'777324'
p1426
I146717
sS'777325'
p1427
I146718
sS'777326'
p1428
I146719
sS'777327'
p1429
I146721
sS'777328'
p1430
I146722
sS'777329'
p1431
I146723
sS'776629'
p1432
I146129
sS'778436'
p1433
I147881
sS'776464'
p1434
I145962
sS'780094'
p1435
I149598
sS'780095'
p1436
I149599
sS'780096'
p1437
I149600
sS'778951'
p1438
I148432
sS'780090'
p1439
I149594
sS'780091'
p1440
I149595
sS'780092'
p1441
I149596
sS'778955'
p1442
I148436
sS'778958'
p1443
I148439
sS'778959'
p1444
I148440
sS'780098'
p1445
I149602
sS'780099'
p1446
I149603
sS'777656'
p1447
I147064
sS'778194'
p1448
I147628
sS'776368'
p1449
I145864
sS'780270'
p1450
I149777
sS'780271'
p1451
I149778
sS'780272'
p1452
I149779
sS'780273'
p1453
I149780
sS'780274'
p1454
I149781
sS'780275'
p1455
I149782
sS'780276'
p1456
I149783
sS'780277'
p1457
I149784
sS'780278'
p1458
I149785
sS'780279'
p1459
I149786
sS'778756'
p1460
I148229
sS'778431'
p1461
I147876
sS'778757'
p1462
I148230
sS'778758'
p1463
I148231
sS'778207'
p1464
I147641
sS'779999'
p1465
I149499
sS'780478'
p1466
I149916
sS'780479'
p1467
I149918
sS'776652'
p1468
I146151
sS'780472'
p1469
I149909
sS'780473'
p1470
I149910
sS'780470'
p1471
I149907
sS'780471'
p1472
I149908
sS'780476'
p1473
I149914
sS'780477'
p1474
I149915
sS'780474'
p1475
I149911
sS'780475'
p1476
I149912
sS'779443'
p1477
I148929
sS'779442'
p1478
I148928
sS'779337'
p1479
I148821
sS'779449'
p1480
I148935
sS'779448'
p1481
I148934
sS'779339'
p1482
I148823
sS'779338'
p1483
I148822
sS'779335'
p1484
I148819
sS'779334'
p1485
I148818
sS'779441'
p1486
I148927
sS'779440'
p1487
I148926
sS'779331'
p1488
I148815
sS'779330'
p1489
I148814
sS'779445'
p1490
I148931
sS'779332'
p1491
I148816
sS'779333'
p1492
I148817
sS'779444'
p1493
I148930
sS'779993'
p1494
I149493
sS'779992'
p1495
I149492
sS'779201'
p1496
I148682
sS'779200'
p1497
I148681
sS'779203'
p1498
I148684
sS'779202'
p1499
I148683
sS'779205'
p1500
I148686
sS'779204'
p1501
I148685
sS'779207'
p1502
I148688
sS'779206'
p1503
I148687
sS'779209'
p1504
I148690
sS'779208'
p1505
I148689
sS'777837'
p1506
I147255
sS'779537'
p1507
I149028
sS'779536'
p1508
I149027
sS'779535'
p1509
I149025
sS'779534'
p1510
I149024
sS'778008'
p1511
I147439
sS'779532'
p1512
I149022
sS'778558'
p1513
I148019
sS'778559'
p1514
I148020
sS'778004'
p1515
I147434
sS'778005'
p1516
I147435
sS'778006'
p1517
I147436
sS'778555'
p1518
I148016
sS'778000'
p1519
I147430
sS'778553'
p1520
I148014
sS'778002'
p1521
I147432
sS'778003'
p1522
I147433
sS'779029'
p1523
I148512
sS'779028'
p1524
I148511
sS'777242'
p1525
I146628
sS'779021'
p1526
I148504
sS'779020'
p1527
I148503
sS'779023'
p1528
I148506
sS'779022'
p1529
I148505
sS'779025'
p1530
I148508
sS'779024'
p1531
I148507
sS'779027'
p1532
I148510
sS'779026'
p1533
I148509
sS'777646'
p1534
I147054
sS'777645'
p1535
I147053
sS'777644'
p1536
I147052
sS'777643'
p1537
I147051
sS'777642'
p1538
I147050
sS'777604'
p1539
I147012
sS'777669'
p1540
I147077
sS'777668'
p1541
I147076
sS'777665'
p1542
I147073
sS'777664'
p1543
I147072
sS'777667'
p1544
I147075
sS'777666'
p1545
I147074
sS'777661'
p1546
I147069
sS'777660'
p1547
I147068
sS'777663'
p1548
I147071
sS'777662'
p1549
I147070
sS'778318'
p1550
I147762
sS'779154'
p1551
I148632
sS'779157'
p1552
I148635
sS'779156'
p1553
I148634
sS'779151'
p1554
I148629
sS'779150'
p1555
I148628
sS'779153'
p1556
I148631
sS'779152'
p1557
I148630
sS'778310'
p1558
I147753
sS'778311'
p1559
I147754
sS'778312'
p1560
I147755
sS'778313'
p1561
I147756
sS'779159'
p1562
I148637
sS'779158'
p1563
I148636
sS'778316'
p1564
I147760
sS'778317'
p1565
I147761
sS'778798'
p1566
I148273
sS'778799'
p1567
I148274
sS'778794'
p1568
I148269
sS'778795'
p1569
I148270
sS'778796'
p1570
I148271
sS'778797'
p1571
I148272
sS'778790'
p1572
I148265
sS'778791'
p1573
I148266
sS'778792'
p1574
I148267
sS'778793'
p1575
I148268
sS'777409'
p1576
I146809
sS'777456'
p1577
I146858
sS'778176'
p1578
I147609
sS'778177'
p1579
I147611
sS'778170'
p1580
I147603
sS'778171'
p1581
I147604
sS'778172'
p1582
I147605
sS'777457'
p1583
I146859
sS'777401'
p1584
I146800
sS'777400'
p1585
I146799
sS'777403'
p1586
I146803
sS'777402'
p1587
I146801
sS'777405'
p1588
I146805
sS'777454'
p1589
I146856
sS'777407'
p1590
I146807
sS'777406'
p1591
I146806
sS'778776'
p1592
I148250
sS'778777'
p1593
I148251
sS'778774'
p1594
I148248
sS'777455'
p1595
I146857
sS'778772'
p1596
I148246
sS'778773'
p1597
I148247
sS'778770'
p1598
I148244
sS'778771'
p1599
I148245
sS'777791'
p1600
I147202
sS'777452'
p1601
I146854
sS'777793'
p1602
I147204
sS'777792'
p1603
I147203
sS'777795'
p1604
I147206
sS'777794'
p1605
I147205
sS'778778'
p1606
I148252
sS'777453'
p1607
I146855
sS'777856'
p1608
I147275
sS'777889'
p1609
I147309
sS'777450'
p1610
I146852
sS'777885'
p1611
I147305
sS'777884'
p1612
I147304
sS'777887'
p1613
I147307
sS'777886'
p1614
I147306
sS'777881'
p1615
I147301
sS'777880'
p1616
I147300
sS'777883'
p1617
I147303
sS'777882'
p1618
I147302
sS'776465'
p1619
I145963
sS'776364'
p1620
I145860
sS'778329'
p1621
I147773
sS'777535'
p1622
I146941
sS'777534'
p1623
I146940
sS'777537'
p1624
I146943
sS'777536'
p1625
I146942
sS'777247'
p1626
I146633
sS'777530'
p1627
I146936
sS'777245'
p1628
I146631
sS'777244'
p1629
I146630
sS'776451'
p1630
I145948
sS'777249'
p1631
I146635
sS'777248'
p1632
I146634
sS'777539'
p1633
I146945
sS'776335'
p1634
I145830
sS'776336'
p1635
I145831
sS'776337'
p1636
I145832
sS'779832'
p1637
I149328
sS'779833'
p1638
I149329
sS'779830'
p1639
I149326
sS'779831'
p1640
I149327
sS'778328'
p1641
I147772
sS'777458'
p1642
I146861
sS'779834'
p1643
I149330
sS'779835'
p1644
I149331
sS'779838'
p1645
I149335
sS'777459'
p1646
I146862
sS'779437'
p1647
I148923
sS'777542'
p1648
I146948
sS'776428'
p1649
I145925
sS'776429'
p1650
I145926
sS'776938'
p1651
I146442
sS'776939'
p1652
I146443
sS'776936'
p1653
I146440
sS'776425'
p1654
I145922
sS'776934'
p1655
I146438
sS'776935'
p1656
I146439
sS'776932'
p1657
I146435
sS'776933'
p1658
I146436
sS'776930'
p1659
I146433
sS'776423'
p1660
I145920
sS'776756'
p1661
I146258
sS'776757'
p1662
I146259
sS'776754'
p1663
I146255
sS'776755'
p1664
I146257
sS'776752'
p1665
I146253
sS'776753'
p1666
I146254
sS'776750'
p1667
I146251
sS'776751'
p1668
I146252
sS'776758'
p1669
I146260
sS'776759'
p1670
I146261
sS'777339'
p1671
I146733
sS'777338'
p1672
I146732
sS'777337'
p1673
I146731
sS'779533'
p1674
I149023
sS'777335'
p1675
I146729
sS'777334'
p1676
I146728
sS'777333'
p1677
I146727
sS'777332'
p1678
I146726
sS'777331'
p1679
I146725
sS'778009'
p1680
I147440
sS'779531'
p1681
I149021
sS'779948'
p1682
I149449
sS'779949'
p1683
I149450
sS'779947'
p1684
I149448
sS'777113'
p1685
I146491
sS'779530'
p1686
I149020
sS'779942'
p1687
I149443
sS'779943'
p1688
I149444
sS'778325'
p1689
I147769
sS'779941'
p1690
I149442
sS'776688'
p1691
I146188
sS'776689'
p1692
I146189
sS'778557'
p1693
I148018
sS'776680'
p1694
I146180
sS'776681'
p1695
I146181
sS'776682'
p1696
I146182
sS'776683'
p1697
I146183
sS'776684'
p1698
I146184
sS'776685'
p1699
I146185
sS'776686'
p1700
I146186
sS'776687'
p1701
I146187
sS'778295'
p1702
I147734
sS'778294'
p1703
I147733
sS'777112'
p1704
I146490
sS'778552'
p1705
I148013
sS'778324'
p1706
I147768
sS'778297'
p1707
I147737
sS'778001'
p1708
I147431
sS'778941'
p1709
I148422
sS'778940'
p1710
I148421
sS'778943'
p1711
I148424
sS'776852'
p1712
I146355
sS'778945'
p1713
I148426
sS'778550'
p1714
I148011
sS'778947'
p1715
I148428
sS'780084'
p1716
I149588
sS'778949'
p1717
I148430
sS'776855'
p1718
I146358
sS'780089'
p1719
I149593
sS'779538'
p1720
I149029
sS'778408'
p1721
I147853
sS'776854'
p1722
I146357
sS'776857'
p1723
I146360
sS'778292'
p1724
I147731
sS'778409'
p1725
I147854
sS'779438'
p1726
I148924
sS'778326'
p1727
I147770
sS'778740'
p1728
I148213
sS'779439'
p1729
I148925
sS'779436'
p1730
I148922
sS'780269'
p1731
I149776
sS'780268'
p1732
I149775
sS'780267'
p1733
I149774
sS'780265'
p1734
I149772
sS'780264'
p1735
I149771
sS'780263'
p1736
I149770
sS'780262'
p1737
I149769
sS'780261'
p1738
I149768
sS'780260'
p1739
I149767
sS'776521'
p1740
I146019
sS'777117'
p1741
I146495
sS'776520'
p1742
I146018
sS'777858'
p1743
I147277
sS'777859'
p1744
I147278
sS'777852'
p1745
I147271
sS'776624'
p1746
I146124
sS'777853'
p1747
I147272
sS'777582'
p1748
I146989
sS'780469'
p1749
I149906
sS'780468'
p1750
I149905
sS'778323'
p1751
I147767
sS'776913'
p1752
I146416
sS'780461'
p1753
I149897
sS'780460'
p1754
I149896
sS'780463'
p1755
I149899
sS'780462'
p1756
I149898
sS'780465'
p1757
I149902
sS'780464'
p1758
I149900
sS'780467'
p1759
I149904
sS'777857'
p1760
I147276
sS'777854'
p1761
I147273
sS'777587'
p1762
I146995
sS'780253'
p1763
I149760
sS'778322'
p1764
I147766
sS'779309'
p1765
I148793
sS'779300'
p1766
I148784
sS'779301'
p1767
I148785
sS'779302'
p1768
I148786
sS'779303'
p1769
I148787
sS'779304'
p1770
I148788
sS'779305'
p1771
I148789
sS'779306'
p1772
I148790
sS'779307'
p1773
I148791
sS'776459'
p1774
I145956
sS'780144'
p1775
I149651
sS'776777'
p1776
I146280
sS'776458'
p1777
I145955
sS'779238'
p1778
I148720
sS'779239'
p1779
I148721
sS'779336'
p1780
I148820
sS'779234'
p1781
I148716
sS'779235'
p1782
I148717
sS'779236'
p1783
I148718
sS'779230'
p1784
I148711
sS'779231'
p1785
I148712
sS'779232'
p1786
I148714
sS'779233'
p1787
I148715
sS'779014'
p1788
I148497
sS'779015'
p1789
I148498
sS'778019'
p1790
I147450
sS'779017'
p1791
I148500
sS'779546'
p1792
I149037
sS'779547'
p1793
I149038
sS'779012'
p1794
I148494
sS'779013'
p1795
I148496
sS'778013'
p1796
I147444
sS'778544'
p1797
I148005
sS'779548'
p1798
I149039
sS'779549'
p1799
I149040
sS'778541'
p1800
I148002
sS'778540'
p1801
I148001
sS'778015'
p1802
I147446
sS'778014'
p1803
I147445
sS'779784'
p1804
I149282
sS'779785'
p1805
I149283
sS'779786'
p1806
I149284
sS'779787'
p1807
I149285
sS'779780'
p1808
I149278
sS'779781'
p1809
I149279
sS'777119'
p1810
I146497
sS'779783'
p1811
I149281
sS'779788'
p1812
I149286
sS'779789'
p1813
I149287
sS'777658'
p1814
I147066
sS'777659'
p1815
I147067
sS'778304'
p1816
I147745
sS'778303'
p1817
I147744
sS'778302'
p1818
I147742
sS'778301'
p1819
I147741
sS'778300'
p1820
I147740
sS'777650'
p1821
I147058
sS'777651'
p1822
I147059
sS'777652'
p1823
I147060
sS'777653'
p1824
I147061
sS'777654'
p1825
I147062
sS'777655'
p1826
I147063
sS'778309'
p1827
I147751
sS'777657'
p1828
I147065
sS'779160'
p1829
I148638
sS'779161'
p1830
I148639
sS'779162'
p1831
I148640
sS'778700'
p1832
I148173
sS'779164'
p1833
I148642
sS'779165'
p1834
I148643
sS'779166'
p1835
I148644
sS'779167'
p1836
I148646
sS'779168'
p1837
I148647
sS'778707'
p1838
I148180
sS'778706'
p1839
I148179
sS'779490'
p1840
I148979
sS'779491'
p1841
I148980
sS'779492'
p1842
I148981
sS'779493'
p1843
I148982
sS'779494'
p1844
I148983
sS'779495'
p1845
I148984
sS'779496'
p1846
I148985
sS'779497'
p1847
I148986
sS'779498'
p1848
I148987
sS'779499'
p1849
I148988
sS'778704'
p1850
I148177
sS'778579'
p1851
I148041
sS'778789'
p1852
I148264
sS'778788'
p1853
I148263
sS'778783'
p1854
I148257
sS'778782'
p1855
I148256
sS'778781'
p1856
I148255
sS'778780'
p1857
I148254
sS'778787'
p1858
I148261
sS'778786'
p1859
I148260
sS'778785'
p1860
I148259
sS'778784'
p1861
I148258
sS'778163'
p1862
I147595
sS'778162'
p1863
I147594
sS'778161'
p1864
I147593
sS'778160'
p1865
I147592
sS'778167'
p1866
I147600
sS'778166'
p1867
I147599
sS'778165'
p1868
I147598
sS'778164'
p1869
I147597
sS'778169'
p1870
I147602
sS'778168'
p1871
I147601
sS'778765'
p1872
I148239
sS'778764'
p1873
I148238
sS'778767'
p1874
I148241
sS'778766'
p1875
I148240
sS'778761'
p1876
I148234
sS'778760'
p1877
I148233
sS'778763'
p1878
I148237
sS'778762'
p1879
I148236
sS'778769'
p1880
I148243
sS'778768'
p1881
I148242
sS'779155'
p1882
I148633
sS'778319'
p1883
I147763
sS'778091'
p1884
I147523
sS'778090'
p1885
I147522
sS'777500'
p1886
I146906
sS'777501'
p1887
I146907
sS'777502'
p1888
I146908
sS'777503'
p1889
I146909
sS'777504'
p1890
I146910
sS'777505'
p1891
I146911
sS'777506'
p1892
I146912
sS'777507'
p1893
I146913
sS'777508'
p1894
I146914
sS'777509'
p1895
I146915
sS'779821'
p1896
I149319
sS'779820'
p1897
I149318
sS'779825'
p1898
I149321
sS'779824'
p1899
I149320
sS'779827'
p1900
I149323
sS'779826'
p1901
I149322
sS'779829'
p1902
I149325
sS'779828'
p1903
I149324
sS'778099'
p1904
I147531
sS'776450'
p1905
I145947
sS'778098'
p1906
I147530
sS'778314'
p1907
I147757
sS'778315'
p1908
I147759
sS'777434'
p1909
I146835
sS'777435'
p1910
I146836
sS'777436'
p1911
I146837
sS'777437'
p1912
I146838
sS'777430'
p1913
I146831
sS'777431'
p1914
I146832
sS'777432'
p1915
I146833
sS'777433'
p1916
I146834
sS'776433'
p1917
I145930
sS'776924'
p1918
I146427
sS'776431'
p1919
I145928
sS'776430'
p1920
I145927
sS'776437'
p1921
I145934
sS'777439'
p1922
I146840
sS'776923'
p1923
I146426
sS'776922'
p1924
I146425
sS'776745'
p1925
I146246
sS'776744'
p1926
I146245
sS'776747'
p1927
I146248
sS'776746'
p1928
I146247
sS'776741'
p1929
I146242
sS'776740'
p1930
I146241
sS'776743'
p1931
I146244
sS'776742'
p1932
I146243
sS'776749'
p1933
I146250
sS'776748'
p1934
I146249
sS'777348'
p1935
I146742
sS'777349'
p1936
I146743
sS'777342'
p1937
I146736
sS'777343'
p1938
I146737
sS'777340'
p1939
I146734
sS'777341'
p1940
I146735
sS'777346'
p1941
I146740
sS'777347'
p1942
I146741
sS'777344'
p1943
I146738
sS'777345'
p1944
I146739
sS'776697'
p1945
I146197
sS'776696'
p1946
I146196
sS'776695'
p1947
I146195
sS'776694'
p1948
I146194
sS'779959'
p1949
I149460
sS'779958'
p1950
I149459
sS'776691'
p1951
I146191
sS'776690'
p1952
I146190
sS'779955'
p1953
I149456
sS'779954'
p1954
I149455
sS'779957'
p1955
I149458
sS'779956'
p1956
I149457
sS'779951'
p1957
I149452
sS'779950'
p1958
I149451
sS'776699'
p1959
I146199
sS'779952'
p1960
I149453
sS'777982'
p1961
I147412
sS'778451'
p1962
I147897
sS'778978'
p1963
I148459
sS'778979'
p1964
I148460
sS'780078'
p1965
I149582
sS'780079'
p1966
I149583
sS'780076'
p1967
I149580
sS'780077'
p1968
I149581
sS'780074'
p1969
I149578
sS'780075'
p1970
I149579
sS'780072'
p1971
I149576
sS'780073'
p1972
I149577
sS'780070'
p1973
I149574
sS'780071'
p1974
I149575
sS'778417'
p1975
I147862
sS'779852'
p1976
I149348
sS'776929'
p1977
I146432
sS'780218'
p1978
I149725
sS'780219'
p1979
I149726
sS'780212'
p1980
I149719
sS'780213'
p1981
I149720
sS'780210'
p1982
I149717
sS'780211'
p1983
I149718
sS'780216'
p1984
I149723
sS'780217'
p1985
I149724
sS'780214'
p1986
I149721
sS'780215'
p1987
I149722
sS'780188'
p1988
I149695
sS'780189'
p1989
I149696
sS'777695'
p1990
I147103
sS'780183'
p1991
I149691
sS'780180'
p1992
I149688
sS'780181'
p1993
I149689
sS'780007'
p1994
I149507
sS'778419'
p1995
I147864
sS'778418'
p1996
I147863
sS'778174'
p1997
I147607
sS'777408'
p1998
I146808
sS'780006'
p1999
I149506
sS'780454'
p2000
I149889
sS'780455'
p2001
I149890
sS'780456'
p2002
I149891
sS'780457'
p2003
I149892
sS'780450'
p2004
I149885
sS'780451'
p2005
I149886
sS'780452'
p2006
I149887
sS'780453'
p2007
I149888
sS'780458'
p2008
I149893
sS'780459'
p2009
I149894
sS'778960'
p2010
I148441
sS'778173'
p2011
I147606
sS'780005'
p2012
I149505
sS'778966'
p2013
I148447
sS'778996'
p2014
I148477
sS'778997'
p2015
I148478
sS'778994'
p2016
I148475
sS'778995'
p2017
I148476
sS'778992'
p2018
I148473
sS'778993'
p2019
I148474
sS'778990'
p2020
I148471
sS'778991'
p2021
I148472
sS'778964'
p2022
I148445
sS'778998'
p2023
I148479
sS'778999'
p2024
I148480
sS'778439'
p2025
I147884
sS'778178'
p2026
I147612
sS'780004'
p2027
I149504
sS'777404'
p2028
I146804
sS'777832'
p2029
I147250
sS'777576'
p2030
I146983
sS'778438'
p2031
I147883
sS'777799'
p2032
I147210
sS'777798'
p2033
I147209
sS'779229'
p2034
I148710
sS'779228'
p2035
I148709
sS'779223'
p2036
I148704
sS'779222'
p2037
I148703
sS'779221'
p2038
I148702
sS'779220'
p2039
I148701
sS'779227'
p2040
I148708
sS'779226'
p2041
I148707
sS'779225'
p2042
I148706
sS'779224'
p2043
I148705
sS'779003'
p2044
I148484
sS'779550'
p2045
I149041
sS'779001'
p2046
I148482
sS'779000'
p2047
I148481
sS'779555'
p2048
I149046
sS'779006'
p2049
I148487
sS'779005'
p2050
I148486
sS'779004'
p2051
I148485
sS'779559'
p2052
I149050
sS'779558'
p2053
I149049
sS'779009'
p2054
I148491
sS'779008'
p2055
I148489
sS'778574'
p2056
I148036
sS'778575'
p2057
I148037
sS'778576'
p2058
I148038
sS'778577'
p2059
I148039
sS'779793'
p2060
I149291
sS'779792'
p2061
I149290
sS'779791'
p2062
I149289
sS'779790'
p2063
I149288
sS'779797'
p2064
I149295
sS'779796'
p2065
I149294
sS'779795'
p2066
I149293
sS'779794'
p2067
I149292
sS'779799'
p2068
I149297
sS'779798'
p2069
I149296
sS'779002'
p2070
I148483
sS'779316'
p2071
I148800
sS'779315'
p2072
I148799
sS'779314'
p2073
I148798
sS'779313'
p2074
I148797
sS'777797'
p2075
I147208
sS'779311'
p2076
I148795
sS'779310'
p2077
I148794
sS'778779'
p2078
I148253
sS'779319'
p2079
I148803
sS'779318'
p2080
I148802
sS'778372'
p2081
I147817
sS'778373'
p2082
I147818
sS'778370'
p2083
I147815
sS'778371'
p2084
I147816
sS'778376'
p2085
I147821
sS'778377'
p2086
I147822
sS'778374'
p2087
I147819
sS'778375'
p2088
I147820
sS'777836'
p2089
I147254
sS'778378'
p2090
I147823
sS'778379'
p2091
I147824
sS'776949'
p2092
I146453
sS'779676'
p2093
I149171
sS'776948'
p2094
I146452
sS'779179'
p2095
I148658
sS'779178'
p2096
I148657
sS'779177'
p2097
I148656
sS'779176'
p2098
I148655
sS'779175'
p2099
I148654
sS'779174'
p2100
I148653
sS'779173'
p2101
I148652
sS'779172'
p2102
I148651
sS'779171'
p2103
I148650
sS'777888'
p2104
I147308
sS'779853'
p2105
I149349
sS'778389'
p2106
I147834
sS'779489'
p2107
I148978
sS'779488'
p2108
I148977
sS'779487'
p2109
I148976
sS'779486'
p2110
I148975
sS'779485'
p2111
I148974
sS'779484'
p2112
I148973
sS'779483'
p2113
I148972
sS'779482'
p2114
I148971
sS'779481'
p2115
I148970
sS'779480'
p2116
I148969
sS'778067'
p2117
I147498
sS'778387'
p2118
I147832
sS'778437'
p2119
I147882
sS'778386'
p2120
I147831
sS'776941'
p2121
I146445
sS'777289'
p2122
I146677
sS'778198'
p2123
I147632
sS'778199'
p2124
I147633
sS'778196'
p2125
I147630
sS'778197'
p2126
I147631
sS'779007'
p2127
I148488
sS'778195'
p2128
I147629
sS'778192'
p2129
I147626
sS'778193'
p2130
I147627
sS'778190'
p2131
I147624
sS'778191'
p2132
I147625
sS'778750'
p2133
I148223
sS'778751'
p2134
I148224
sS'778752'
p2135
I148225
sS'778753'
p2136
I148226
sS'778754'
p2137
I148227
sS'778755'
p2138
I148228
sS'778208'
p2139
I147642
sS'778209'
p2140
I147643
sS'778206'
p2141
I147640
sS'778759'
p2142
I148232
sS'778204'
p2143
I147638
sS'778205'
p2144
I147639
sS'778202'
p2145
I147636
sS'778203'
p2146
I147637
sS'778200'
p2147
I147634
sS'778201'
p2148
I147635
sS'777288'
p2149
I146676
sS'779743'
p2150
I149240
sS'779317'
p2151
I148801
sS'779744'
p2152
I149241
sS'778065'
p2153
I147496
sS'779297'
p2154
I148781
sS'777647'
p2155
I147055
sS'778683'
p2156
I148156
sS'778680'
p2157
I148153
sS'778681'
p2158
I148154
sS'778686'
p2159
I148159
sS'778687'
p2160
I148160
sS'777641'
p2161
I147049
sS'777640'
p2162
I147048
sS'778688'
p2163
I148161
sS'778689'
p2164
I148162
sS'777649'
p2165
I147057
sS'777648'
p2166
I147056
sS'776594'
p2167
I146092
sS'776595'
p2168
I146093
sS'776596'
p2169
I146094
sS'776597'
p2170
I146095
sS'776590'
p2171
I146088
sS'776591'
p2172
I146089
sS'776592'
p2173
I146090
sS'777518'
p2174
I146924
sS'777517'
p2175
I146923
sS'777516'
p2176
I146922
sS'777515'
p2177
I146921
sS'777514'
p2178
I146920
sS'776598'
p2179
I146096
sS'777512'
p2180
I146918
sS'777511'
p2181
I146917
sS'777510'
p2182
I146916
sS'778430'
p2183
I147875
sS'779818'
p2184
I149316
sS'779819'
p2185
I149317
sS'776945'
p2186
I146449
sS'779814'
p2187
I149312
sS'779815'
p2188
I149313
sS'779816'
p2189
I149314
sS'779817'
p2190
I149315
sS'779810'
p2191
I149308
sS'779811'
p2192
I149309
sS'779812'
p2193
I149310
sS'779813'
p2194
I149311
sS'778063'
p2195
I147494
sS'779953'
p2196
I149454
sS'778433'
p2197
I147878
sS'777423'
p2198
I146823
sS'777422'
p2199
I146822
sS'777421'
p2200
I146821
sS'777420'
p2201
I146820
sS'777427'
p2202
I146827
sS'777426'
p2203
I146826
sS'777425'
p2204
I146825
sS'777424'
p2205
I146824
sS'778549'
p2206
I148010
sS'776911'
p2207
I146414
sS'776912'
p2208
I146415
sS'777428'
p2209
I146828
sS'776914'
p2210
I146417
sS'776915'
p2211
I146418
sS'776916'
p2212
I146419
sS'776917'
p2213
I146420
sS'776770'
p2214
I146273
sS'776771'
p2215
I146274
sS'776772'
p2216
I146275
sS'776773'
p2217
I146276
sS'776774'
p2218
I146277
sS'776775'
p2219
I146278
sS'776776'
p2220
I146279
sS'776339'
p2221
I145834
sS'776778'
p2222
I146281
sS'776779'
p2223
I146282
sS'777241'
p2224
I146627
sS'777359'
p2225
I146753
sS'777358'
p2226
I146752
sS'777240'
p2227
I146626
sS'777351'
p2228
I146745
sS'777531'
p2229
I146937
sS'777353'
p2230
I146747
sS'777352'
p2231
I146746
sS'777355'
p2232
I146749
sS'777354'
p2233
I146748
sS'777357'
p2234
I146751
sS'777356'
p2235
I146750
sS'779968'
p2236
I149468
sS'779969'
p2237
I149469
sS'779189'
p2238
I148670
sS'778061'
p2239
I147492
sS'777533'
p2240
I146939
sS'779961'
p2241
I149462
sS'779962'
p2242
I149463
sS'779963'
p2243
I149464
sS'779966'
p2244
I149466
sS'779967'
p2245
I149467
sS'776353'
p2246
I145848
sS'776350'
p2247
I145845
sS'779264'
p2248
I148746
sS'776356'
p2249
I145851
sS'776357'
p2250
I145852
sS'776354'
p2251
I145849
sS'776355'
p2252
I145850
sS'776358'
p2253
I145853
sS'776359'
p2254
I145854
sS'778961'
p2255
I148442
sS'777538'
p2256
I146944
sS'777493'
p2257
I146899
sS'778969'
p2258
I148450
sS'778968'
p2259
I148449
sS'780069'
p2260
I149573
sS'780068'
p2261
I149572
sS'780065'
p2262
I149569
sS'780064'
p2263
I149568
sS'780067'
p2264
I149571
sS'780066'
p2265
I149570
sS'778967'
p2266
I148448
sS'780060'
p2267
I149564
sS'780063'
p2268
I149567
sS'780062'
p2269
I149566
sS'777128'
p2270
I146506
sS'778545'
p2271
I148006
sS'777129'
p2272
I146507
sS'779836'
p2273
I149332
sS'779268'
p2274
I148750
sS'779678'
p2275
I149173
sS'779837'
p2276
I149334
sS'778349'
p2277
I147793
sS'780209'
p2278
I149716
sS'780208'
p2279
I149715
sS'778348'
p2280
I147792
sS'777123'
p2281
I146501
sS'780201'
p2282
I149708
sS'780200'
p2283
I149707
sS'780203'
p2284
I149710
sS'780202'
p2285
I149709
sS'780205'
p2286
I149712
sS'780204'
p2287
I149711
sS'780207'
p2288
I149714
sS'780206'
p2289
I149713
sS'780199'
p2290
I149706
sS'780198'
p2291
I149705
sS'779839'
p2292
I149336
sS'779122'
p2293
I148600
sS'780191'
p2294
I149698
sS'780190'
p2295
I149697
sS'780193'
p2296
I149700
sS'780192'
p2297
I149699
sS'780195'
p2298
I149702
sS'780194'
p2299
I149701
sS'780197'
p2300
I149704
sS'780196'
p2301
I149703
sS'778435'
p2302
I147880
sS'777124'
p2303
I146502
sS'778434'
p2304
I147879
sS'779687'
p2305
I149182
sS'778694'
p2306
I148167
sS'779686'
p2307
I149181
sS'778347'
p2308
I147791
sS'778546'
p2309
I148007
sS'780110'
p2310
I149616
sS'779129'
p2311
I148607
sS'780443'
p2312
I149877
sS'780442'
p2313
I149876
sS'780441'
p2314
I149875
sS'780440'
p2315
I149874
sS'780447'
p2316
I149881
sS'780446'
p2317
I149880
sS'780445'
p2318
I149879
sS'780444'
p2319
I149878
sS'780449'
p2320
I149884
sS'780000'
p2321
I149500
sS'780010'
p2322
I149510
sS'778062'
p2323
I147493
sS'778985'
p2324
I148466
sS'778984'
p2325
I148465
sS'778987'
p2326
I148468
sS'778986'
p2327
I148467
sS'778981'
p2328
I148462
sS'778980'
p2329
I148461
sS'778983'
p2330
I148464
sS'778982'
p2331
I148463
sS'778989'
p2332
I148470
sS'778988'
p2333
I148469
sS'776937'
p2334
I146441
sS'777350'
p2335
I146744
sS'779527'
p2336
I149017
sS'776862'
p2337
I146365
sS'779515'
p2338
I149005
sS'776351'
p2339
I145846
sS'780012'
p2340
I149513
sS'777992'
p2341
I147422
sS'777830'
p2342
I147248
sS'779516'
p2343
I149006
sS'776546'
p2344
I146044
sS'779511'
p2345
I149001
sS'776863'
p2346
I146366
sS'779510'
p2347
I149000
sS'778424'
p2348
I147869
sS'777833'
p2349
I147251
sS'779513'
p2350
I149003
sS'776543'
p2351
I146041
sS'779512'
p2352
I149002
sS'777835'
p2353
I147253
sS'779568'
p2354
I149059
sS'779569'
p2355
I149060
sS'779564'
p2356
I149055
sS'779565'
p2357
I149056
sS'779566'
p2358
I149057
sS'779567'
p2359
I149058
sS'779560'
p2360
I149051
sS'779561'
p2361
I149052
sS'779562'
p2362
I149053
sS'779563'
p2363
I149054
sS'776424'
p2364
I145921
sS'779768'
p2365
I149266
sS'779769'
p2366
I149267
sS'779766'
p2367
I149264
sS'779767'
p2368
I149265
sS'779764'
p2369
I149262
sS'779765'
p2370
I149263
sS'779762'
p2371
I149260
sS'779763'
p2372
I149261
sS'779760'
p2373
I149258
sS'779761'
p2374
I149259
sS'776427'
p2375
I145924
sS'776420'
p2376
I145917
sS'776421'
p2377
I145918
sS'779362'
p2378
I148846
sS'779363'
p2379
I148847
sS'779360'
p2380
I148844
sS'779361'
p2381
I148845
sS'779366'
p2382
I148850
sS'776422'
p2383
I145919
sS'779364'
p2384
I148848
sS'779365'
p2385
I148849
sS'780156'
p2386
I149663
sS'779368'
p2387
I148852
sS'776931'
p2388
I146434
sS'778361'
p2389
I147805
sS'778360'
p2390
I147804
sS'778363'
p2391
I147807
sS'778362'
p2392
I147806
sS'778365'
p2393
I147810
sS'778364'
p2394
I147809
sS'778367'
p2395
I147812
sS'778366'
p2396
I147811
sS'778369'
p2397
I147814
sS'778368'
p2398
I147813
sS'778634'
p2399
I148103
sS'779108'
p2400
I148586
sS'779109'
p2401
I148587
sS'779102'
p2402
I148580
sS'779103'
p2403
I148581
sS'779100'
p2404
I148578
sS'779101'
p2405
I148579
sS'779106'
p2406
I148584
sS'779107'
p2407
I148585
sS'779104'
p2408
I148582
sS'779105'
p2409
I148583
sS'780448'
p2410
I149883
sS'776529'
p2411
I146027
sS'778567'
p2412
I148029
sS'778566'
p2413
I148028
sS'778565'
p2414
I148027
sS'778564'
p2415
I148025
sS'778563'
p2416
I148024
sS'778562'
p2417
I148023
sS'778561'
p2418
I148022
sS'778560'
p2419
I148021
sS'777694'
p2420
I147102
sS'779016'
p2421
I148499
sS'776615'
p2422
I146114
sS'778569'
p2423
I148031
sS'778568'
p2424
I148030
sS'776614'
p2425
I146113
sS'778189'
p2426
I147623
sS'778188'
p2427
I147622
sS'777748'
p2428
I147157
sS'776528'
p2429
I146026
sS'777746'
p2430
I147155
sS'777747'
p2431
I147156
sS'777744'
p2432
I147153
sS'777745'
p2433
I147154
sS'777742'
p2434
I147151
sS'777743'
p2435
I147152
sS'778183'
p2436
I147617
sS'777741'
p2437
I147150
sS'779616'
p2438
I149107
sS'779617'
p2439
I149108
sS'779614'
p2440
I149105
sS'779615'
p2441
I149106
sS'778219'
p2442
I147653
sS'779613'
p2443
I149104
sS'778749'
p2444
I148222
sS'778748'
p2445
I148221
sS'778215'
p2446
I147649
sS'778214'
p2447
I147648
sS'778217'
p2448
I147651
sS'778216'
p2449
I147650
sS'778211'
p2450
I147645
sS'778210'
p2451
I147644
sS'778741'
p2452
I148214
sS'779619'
p2453
I149110
sS'779586'
p2454
I149077
sS'779587'
p2455
I149078
sS'779584'
p2456
I149075
sS'779585'
p2457
I149076
sS'779582'
p2458
I149073
sS'779583'
p2459
I149074
sS'779580'
p2460
I149071
sS'779581'
p2461
I149072
sS'778696'
p2462
I148169
sS'779588'
p2463
I149079
sS'779589'
p2464
I149080
sS'777632'
p2465
I147040
sS'777633'
p2466
I147041
sS'777630'
p2467
I147038
sS'778692'
p2468
I148165
sS'777980'
p2469
I147410
sS'777981'
p2470
I147411
sS'778697'
p2471
I148170
sS'777635'
p2472
I147043
sS'779010'
p2473
I148492
sS'778698'
p2474
I148171
sS'777638'
p2475
I147046
sS'777639'
p2476
I147047
sS'777988'
p2477
I147418
sS'777989'
p2478
I147419
sS'777298'
p2479
I146686
sS'777299'
p2480
I146688
sS'776581'
p2481
I146079
sS'777569'
p2482
I146975
sS'776587'
p2483
I146085
sS'776586'
p2484
I146084
sS'776585'
p2485
I146083
sS'776584'
p2486
I146082
sS'777562'
p2487
I146968
sS'777291'
p2488
I146679
sS'776589'
p2489
I146087
sS'777293'
p2490
I146681
sS'777294'
p2491
I146682
sS'777295'
p2492
I146683
sS'777296'
p2493
I146684
sS'777565'
p2494
I146971
sS'778175'
p2495
I147608
sS'779809'
p2496
I149307
sS'779808'
p2497
I149306
sS'779011'
p2498
I148493
sS'777336'
p2499
I146730
sS'779803'
p2500
I149301
sS'779802'
p2501
I149300
sS'779801'
p2502
I149299
sS'779800'
p2503
I149298
sS'779807'
p2504
I149305
sS'779806'
p2505
I149304
sS'779805'
p2506
I149303
sS'779804'
p2507
I149302
sS'776907'
p2508
I146410
sS'776906'
p2509
I146409
sS'776905'
p2510
I146408
sS'776904'
p2511
I146407
sS'776903'
p2512
I146406
sS'776902'
p2513
I146405
sS'776901'
p2514
I146404
sS'776900'
p2515
I146403
sS'776583'
p2516
I146081
sS'778701'
p2517
I148174
sS'776909'
p2518
I146412
sS'776908'
p2519
I146411
sS'777690'
p2520
I147098
sS'777188'
p2521
I146570
sS'777189'
p2522
I146571
sS'777184'
p2523
I146564
sS'777185'
p2524
I146566
sS'777186'
p2525
I146567
sS'777187'
p2526
I146568
sS'777181'
p2527
I146561
sS'777182'
p2528
I146562
sS'777183'
p2529
I146563
sS'777364'
p2530
I146759
sS'777365'
p2531
I146760
sS'777366'
p2532
I146761
sS'777367'
p2533
I146762
sS'777360'
p2534
I146755
sS'777361'
p2535
I146756
sS'776769'
p2536
I146271
sS'776768'
p2537
I146270
sS'776767'
p2538
I146269
sS'776766'
p2539
I146268
sS'776765'
p2540
I146267
sS'776764'
p2541
I146266
sS'777368'
p2542
I146763
sS'776762'
p2543
I146264
sS'776761'
p2544
I146263
sS'776760'
p2545
I146262
sS'779977'
p2546
I149477
sS'777167'
p2547
I146547
sS'777164'
p2548
I146543
sS'777165'
p2549
I146544
sS'777162'
p2550
I146541
sS'777163'
p2551
I146542
sS'777160'
p2552
I146538
sS'777161'
p2553
I146539
sS'777767'
p2554
I147177
sS'778420'
p2555
I147865
sS'777168'
p2556
I146548
sS'779978'
p2557
I149478
sS'778729'
p2558
I148202
sS'778728'
p2559
I148201
sS'778684'
p2560
I148157
sS'776341'
p2561
I145836
sS'776340'
p2562
I145835
sS'776343'
p2563
I145838
sS'776342'
p2564
I145837
sS'776344'
p2565
I145839
sS'776347'
p2566
I145842
sS'776346'
p2567
I145841
sS'776349'
p2568
I145844
sS'776348'
p2569
I145843
sS'779945'
p2570
I149446
sS'776580'
p2571
I146078
sS'778486'
p2572
I147936
sS'778685'
p2573
I148158
sS'778487'
p2574
I147937
sS'780058'
p2575
I149561
sS'778488'
p2576
I147938
sS'779940'
p2577
I149441
sS'778337'
p2578
I147781
sS'780050'
p2579
I149553
sS'780051'
p2580
I149554
sS'780052'
p2581
I149555
sS'780053'
p2582
I149556
sS'780054'
p2583
I149557
sS'780055'
p2584
I149558
sS'780056'
p2585
I149559
sS'780057'
p2586
I149560
sS'780150'
p2587
I149657
sS'779713'
p2588
I149209
sS'777246'
p2589
I146632
sS'779712'
p2590
I149208
sS'779711'
p2591
I149207
sS'780234'
p2592
I149741
sS'780235'
p2593
I149742
sS'780236'
p2594
I149743
sS'779710'
p2595
I149206
sS'780230'
p2596
I149737
sS'780231'
p2597
I149738
sS'780232'
p2598
I149739
sS'780233'
p2599
I149740
sS'777120'
p2600
I146498
sS'779717'
p2601
I149213
sS'780238'
p2602
I149745
sS'780239'
p2603
I149746
sS'779716'
p2604
I149212
sS'779715'
p2605
I149211
sS'779714'
p2606
I149210
sS'778556'
p2607
I148017
sS'779018'
p2608
I148501
sS'780300'
p2609
I149808
sS'780301'
p2610
I149809
sS'780302'
p2611
I149811
sS'780304'
p2612
I149813
sS'780305'
p2613
I149814
sS'780306'
p2614
I149815
sS'780307'
p2615
I149816
sS'780308'
p2616
I149818
sS'780309'
p2617
I149819
sS'778554'
p2618
I148015
sS'777803'
p2619
I147214
sS'780153'
p2620
I149660
sS'777619'
p2621
I147027
sS'777614'
p2622
I147022
sS'780435'
p2623
I149869
sS'777615'
p2624
I147023
sS'779447'
p2625
I148933
sS'777616'
p2626
I147024
sS'777121'
p2627
I146499
sS'780083'
p2628
I149587
sS'777617'
p2629
I147025
sS'780082'
p2630
I149586
sS'777610'
p2631
I147018
sS'780081'
p2632
I149585
sS'777611'
p2633
I147019
sS'778942'
p2634
I148423
sS'776588'
p2635
I146086
sS'777960'
p2636
I147387
sS'778179'
p2637
I147613
sS'780087'
p2638
I149591
sS'778086'
p2639
I147517
sS'777613'
p2640
I147021
sS'778944'
p2641
I148425
sS'778504'
p2642
I147959
sS'779579'
p2643
I149070
sS'779578'
p2644
I149069
sS'780085'
p2645
I149589
sS'777691'
p2646
I147099
sS'779573'
p2647
I149064
sS'779572'
p2648
I149063
sS'779571'
p2649
I149062
sS'779570'
p2650
I149061
sS'779577'
p2651
I149068
sS'779576'
p2652
I149067
sS'779575'
p2653
I149066
sS'779574'
p2654
I149065
sS'779779'
p2655
I149277
sS'779778'
p2656
I149276
sS'778948'
p2657
I148429
sS'779775'
p2658
I149273
sS'779774'
p2659
I149272
sS'779777'
p2660
I149275
sS'779776'
p2661
I149274
sS'779771'
p2662
I149269
sS'779770'
p2663
I149268
sS'779773'
p2664
I149271
sS'779772'
p2665
I149270
sS'780088'
p2666
I149592
sS'778551'
p2667
I148012
sS'779370'
p2668
I148854
sS'779373'
p2669
I148857
sS'779372'
p2670
I148856
sS'779375'
p2671
I148859
sS'779374'
p2672
I148858
sS'779377'
p2673
I148861
sS'779376'
p2674
I148860
sS'779379'
p2675
I148864
sS'779378'
p2676
I148862
sS'778358'
p2677
I147802
sS'778359'
p2678
I147803
sS'778428'
p2679
I147873
sS'778429'
p2680
I147874
sS'778426'
p2681
I147871
sS'778427'
p2682
I147872
sS'778356'
p2683
I147800
sS'778357'
p2684
I147801
sS'778422'
p2685
I147867
sS'778423'
p2686
I147868
sS'778352'
p2687
I147796
sS'778421'
p2688
I147866
sS'779119'
p2689
I148597
sS'779118'
p2690
I148596
sS'779111'
p2691
I148589
sS'779110'
p2692
I148588
sS'779113'
p2693
I148591
sS'779112'
p2694
I148590
sS'779115'
p2695
I148593
sS'779114'
p2696
I148592
sS'779117'
p2697
I148595
sS'779116'
p2698
I148594
sS'778512'
p2699
I147971
sS'778513'
p2700
I147972
sS'778510'
p2701
I147967
sS'778511'
p2702
I147969
sS'778516'
p2703
I147975
sS'778517'
p2704
I147976
sS'778514'
p2705
I147973
sS'778515'
p2706
I147974
sS'778508'
p2707
I147965
sS'778518'
p2708
I147977
sS'778519'
p2709
I147979
sS'777759'
p2710
I147169
sS'777758'
p2711
I147168
sS'777813'
p2712
I147228
sS'777755'
p2713
I147165
sS'777754'
p2714
I147163
sS'777757'
p2715
I147167
sS'777756'
p2716
I147166
sS'777751'
p2717
I147160
sS'777750'
p2718
I147159
sS'779056'
p2719
I148535
sS'777752'
p2720
I147161
sS'779605'
p2721
I149096
sS'779604'
p2722
I149095
sS'779607'
p2723
I149098
sS'779606'
p2724
I149097
sS'779601'
p2725
I149092
sS'779600'
p2726
I149091
sS'779603'
p2727
I149094
sS'779602'
p2728
I149093
sS'778220'
p2729
I147654
sS'778221'
p2730
I147655
sS'778222'
p2731
I147656
sS'778223'
p2732
I147657
sS'779609'
p2733
I149100
sS'779608'
p2734
I149099
sS'778226'
p2735
I147660
sS'778227'
p2736
I147661
sS'779595'
p2737
I149086
sS'779594'
p2738
I149085
sS'779597'
p2739
I149088
sS'779596'
p2740
I149087
sS'779591'
p2741
I149082
sS'779590'
p2742
I149081
sS'779593'
p2743
I149084
sS'779592'
p2744
I149083
sS'779599'
p2745
I149090
sS'779598'
p2746
I149089
sS'777621'
p2747
I147029
sS'777620'
p2748
I147028
sS'777623'
p2749
I147031
sS'777622'
p2750
I147030
sS'777997'
p2751
I147427
sS'777624'
p2752
I147032
sS'777627'
p2753
I147035
sS'777626'
p2754
I147034
sS'777629'
p2755
I147037
sS'777628'
p2756
I147036
sS'777999'
p2757
I147429
sS'777998'
p2758
I147428
sS'777579'
p2759
I146986
sS'777578'
p2760
I146985
sS'777811'
p2761
I147226
sS'776579'
p2762
I146077
sS'776576'
p2763
I146074
sS'776577'
p2764
I146075
sS'776574'
p2765
I146072
sS'776575'
p2766
I146073
sS'777575'
p2767
I146982
sS'776573'
p2768
I146071
sS'776570'
p2769
I146068
sS'776571'
p2770
I146069
sS'778646'
p2771
I148116
sS'778647'
p2772
I148117
sS'778645'
p2773
I148115
sS'778642'
p2774
I148112
sS'778643'
p2775
I148113
sS'778640'
p2776
I148110
sS'778641'
p2777
I148111
sS'778648'
p2778
I148119
sS'778649'
p2779
I148120
sS'777199'
p2780
I146582
sS'777198'
p2781
I146581
sS'777193'
p2782
I146575
sS'777192'
p2783
I146574
sS'777191'
p2784
I146573
sS'777190'
p2785
I146572
sS'777197'
p2786
I146580
sS'777196'
p2787
I146579
sS'777195'
p2788
I146577
sS'777194'
p2789
I146576
sS'777373'
p2790
I146768
sS'777372'
p2791
I146767
sS'777371'
p2792
I146766
sS'776719'
p2793
I146219
sS'777377'
p2794
I146773
sS'777376'
p2795
I146772
sS'777375'
p2796
I146771
sS'777374'
p2797
I146769
sS'776712'
p2798
I146212
sS'776713'
p2799
I146213
sS'777379'
p2800
I146775
sS'777378'
p2801
I146774
sS'776716'
p2802
I146216
sS'776717'
p2803
I146217
sS'776714'
p2804
I146214
sS'776715'
p2805
I146215
sS'777175'
p2806
I146556
sS'777174'
p2807
I146555
sS'779900'
p2808
I149399
sS'777176'
p2809
I146557
sS'777171'
p2810
I146551
sS'777170'
p2811
I146550
sS'779904'
p2812
I149403
sS'777172'
p2813
I146552
sS'776482'
p2814
I145980
sS'776483'
p2815
I145981
sS'776480'
p2816
I145978
sS'776481'
p2817
I145979
sS'776486'
p2818
I145984
sS'776487'
p2819
I145985
sS'776484'
p2820
I145982
sS'776485'
p2821
I145983
sS'777287'
p2822
I146675
sS'777286'
p2823
I146674
sS'777285'
p2824
I146672
sS'777284'
p2825
I146671
sS'776378'
p2826
I145874
sS'777282'
p2827
I146669
sS'776808'
p2828
I146311
sS'777280'
p2829
I146667
sS'776806'
p2830
I146309
sS'776807'
p2831
I146310
sS'776376'
p2832
I145872
sS'776805'
p2833
I146308
sS'776370'
p2834
I145866
sS'776371'
p2835
I145867
sS'776800'
p2836
I146303
sS'776801'
p2837
I146304
sS'776626'
p2838
I146126
sS'776627'
p2839
I146127
sS'780045'
p2840
I149548
sS'776625'
p2841
I146125
sS'780043'
p2842
I149546
sS'776623'
p2843
I146123
sS'776620'
p2844
I146120
sS'780040'
p2845
I149543
sS'776628'
p2846
I146128
sS'780048'
p2847
I149551
sS'776396'
p2848
I145892
sS'776397'
p2849
I145893
sS'776394'
p2850
I145890
sS'776395'
p2851
I145891
sS'776392'
p2852
I145888
sS'776393'
p2853
I145889
sS'776390'
p2854
I145886
sS'776391'
p2855
I145887
sS'777561'
p2856
I146967
sS'776398'
p2857
I145894
sS'776399'
p2858
I145895
sS'778711'
p2859
I148184
sS'780223'
p2860
I149730
sS'780222'
p2861
I149729
sS'780221'
p2862
I149728
sS'780220'
p2863
I149727
sS'780227'
p2864
I149734
sS'780226'
p2865
I149733
sS'780225'
p2866
I149732
sS'780224'
p2867
I149731
sS'780229'
p2868
I149736
sS'780228'
p2869
I149735
sS'776928'
p2870
I146431
sS'776701'
p2871
I146201
sS'777636'
p2872
I147044
sS'776700'
p2873
I146200
sS'776703'
p2874
I146203
sS'779367'
p2875
I148851
sS'776702'
p2876
I146202
sS'776705'
p2877
I146205
sS'776704'
p2878
I146204
sS'777380'
p2879
I146776
sS'780314'
p2880
I149824
sS'780313'
p2881
I149823
sS'780312'
p2882
I149822
sS'780311'
p2883
I149821
sS'776499'
p2884
I145997
sS'779369'
p2885
I148853
sS'779910'
p2886
I149412
sS'776593'
p2887
I146091
sS'777142'
p2888
I146520
sS'777566'
p2889
I146972
sS'779912'
p2890
I149414
sS'779914'
p2891
I149416
sS'778308'
p2892
I147750
sS'779917'
p2893
I149418
sS'779916'
p2894
I149417
sS'779919'
p2895
I149420
sS'777149'
p2896
I146527
sS'777571'
p2897
I146978
sS'777532'
p2898
I146938
sS'776497'
p2899
I145995
sS'779858'
p2900
I149355
sS'777122'
p2901
I146500
sS'779859'
p2902
I149357
sS'779748'
p2903
I149246
sS'779749'
p2904
I149247
sS'779298'
p2905
I148782
sS'779299'
p2906
I148783
sS'779740'
p2907
I149237
sS'779741'
p2908
I149238
sS'779742'
p2909
I149239
sS'779291'
p2910
I148775
sS'779296'
p2911
I148780
sS'779745'
p2912
I149243
sS'779746'
p2913
I149244
sS'779747'
p2914
I149245
sS'777790'
p2915
I147201
sS'779065'
p2916
I148544
sS'778719'
p2917
I148192
sS'779064'
p2918
I148543
sS'779066'
p2919
I148545
sS'779348'
p2920
I148832
sS'779349'
p2921
I148833
sS'779344'
p2922
I148828
sS'779345'
p2923
I148829
sS'779346'
p2924
I148830
sS'779347'
p2925
I148831
sS'779340'
p2926
I148824
sS'779341'
p2927
I148825
sS'779342'
p2928
I148826
sS'779343'
p2929
I148827
sS'779124'
p2930
I148602
sS'779125'
p2931
I148603
sS'779126'
p2932
I148604
sS'779127'
p2933
I148605
sS'779120'
p2934
I148598
sS'779121'
p2935
I148599
sS'777572'
p2936
I146979
sS'779123'
p2937
I148601
sS'778343'
p2938
I147787
sS'778342'
p2939
I147786
sS'778341'
p2940
I147785
sS'778340'
p2941
I147784
sS'779128'
p2942
I148606
sS'778346'
p2943
I147790
sS'778345'
p2944
I147789
sS'778432'
p2945
I147877
sS'778592'
p2946
I148057
sS'778593'
p2947
I148058
sS'778590'
p2948
I148055
sS'776599'
p2949
I146097
sS'777816'
p2950
I147232
sS'778591'
p2951
I148056
sS'777817'
p2952
I147234
sS'778044'
p2953
I147475
sS'777814'
p2954
I147229
sS'779068'
p2955
I148546
sS'778501'
p2956
I147955
sS'778500'
p2957
I147954
sS'778503'
p2958
I147958
sS'778502'
p2959
I147957
sS'778505'
p2960
I147960
sS'778046'
p2961
I147477
sS'778507'
p2962
I147964
sS'778506'
p2963
I147963
sS'778509'
p2964
I147966
sS'777812'
p2965
I147227
sS'778595'
p2966
I148061
sS'777126'
p2967
I146504
sS'777541'
p2968
I146947
sS'777768'
p2969
I147179
sS'777769'
p2970
I147180
sS'778235'
p2971
I147669
sS'778234'
p2972
I147668
sS'778233'
p2973
I147667
sS'778232'
p2974
I147666
sS'778231'
p2975
I147665
sS'778230'
p2976
I147664
sS'777760'
p2977
I147170
sS'777761'
p2978
I147171
sS'777762'
p2979
I147172
sS'777763'
p2980
I147173
sS'777764'
p2981
I147174
sS'777765'
p2982
I147175
sS'778239'
p2983
I147674
sS'778238'
p2984
I147672
sS'779630'
p2985
I149121
sS'779631'
p2986
I149122
sS'779632'
p2987
I149123
sS'777932'
p2988
I147355
sS'779634'
p2989
I149125
sS'779635'
p2990
I149126
sS'779636'
p2991
I149127
sS'776814'
p2992
I146317
sS'778721'
p2993
I148194
sS'779639'
p2994
I149130
sS'778723'
p2995
I148196
sS'778722'
p2996
I148195
sS'778725'
p2997
I148198
sS'778724'
p2998
I148197
sS'778727'
p2999
I148200
sS'778726'
p3000
I148199
sS'777577'
p3001
I146984
sS'776816'
p3002
I146319
sS'776367'
p3003
I145863
sS'776366'
p3004
I145862
sS'779923'
p3005
I149424
sS'777618'
p3006
I147026
sS'777818'
p3007
I147235
sS'777968'
p3008
I147396
sS'777969'
p3009
I147397
sS'777966'
p3010
I147393
sS'777967'
p3011
I147394
sS'777964'
p3012
I147391
sS'777965'
p3013
I147392
sS'777962'
p3014
I147389
sS'777963'
p3015
I147390
sS'777612'
p3016
I147020
sS'777961'
p3017
I147388
sS'776635'
p3018
I146135
sS'776569'
p3019
I146067
sS'776568'
p3020
I146066
sS'776634'
p3021
I146134
sS'776565'
p3022
I146063
sS'776564'
p3023
I146062
sS'776567'
p3024
I146065
sS'776566'
p3025
I146064
sS'776561'
p3026
I146059
sS'776560'
p3027
I146058
sS'776563'
p3028
I146061
sS'776562'
p3029
I146060
sS'778655'
p3030
I148127
sS'778654'
p3031
I148126
sS'778657'
p3032
I148129
sS'778656'
p3033
I148128
sS'778651'
p3034
I148122
sS'778650'
p3035
I148121
sS'778653'
p3036
I148124
sS'778652'
p3037
I148123
sS'777330'
p3038
I146724
sS'776631'
p3039
I146131
sS'778659'
p3040
I148132
sS'778658'
p3041
I148131
sS'776630'
p3042
I146130
sS'776961'
p3043
I146465
sS'776960'
p3044
I146464
sS'776963'
p3045
I146467
sS'776962'
p3046
I146466
sS'776965'
p3047
I146469
sS'776964'
p3048
I146468
sS'776632'
p3049
I146132
sS'780132'
p3050
I149639
sS'778449'
p3051
I147894
sS'780047'
p3052
I149550
sS'776708'
p3053
I146208
sS'777388'
p3054
I146786
sS'777389'
p3055
I146787
sS'777386'
p3056
I146783
sS'777387'
p3057
I146785
sS'777384'
p3058
I146781
sS'777385'
p3059
I146782
sS'777382'
p3060
I146779
sS'777383'
p3061
I146780
sS'776707'
p3062
I146207
sS'777381'
p3063
I146778
sS'777140'
p3064
I146518
sS'776498'
p3065
I145996
sS'779913'
p3066
I149415
sS'777143'
p3067
I146521
sS'777144'
p3068
I146522
sS'777145'
p3069
I146523
sS'777146'
p3070
I146524
sS'777147'
p3071
I146525
sS'776491'
p3072
I145989
sS'779918'
p3073
I149419
sS'776493'
p3074
I145991
sS'776492'
p3075
I145990
sS'776495'
p3076
I145993
sS'776494'
p3077
I145992
sS'780046'
p3078
I149549
sS'776496'
p3079
I145994
sS'778447'
p3080
I147892
sS'779895'
p3081
I149393
sS'777544'
p3082
I146950
sS'777545'
p3083
I146952
sS'776369'
p3084
I145865
sS'777547'
p3085
I146953
sS'777540'
p3086
I146946
sS'776818'
p3087
I146321
sS'777810'
p3088
I147225
sS'777543'
p3089
I146949
sS'776363'
p3090
I145859
sS'776362'
p3091
I145858
sS'776361'
p3092
I145857
sS'776360'
p3093
I145856
sS'777548'
p3094
I146954
sS'776810'
p3095
I146313
sS'776813'
p3096
I146316
sS'777819'
p3097
I147236
sS'780032'
p3098
I149535
sS'780033'
p3099
I149536
sS'780030'
p3100
I149533
sS'780031'
p3101
I149534
sS'780036'
p3102
I149539
sS'780037'
p3103
I149540
sS'776633'
p3104
I146133
sS'780035'
p3105
I149538
sS'780038'
p3106
I149541
sS'780039'
p3107
I149542
sS'776639'
p3108
I146139
sS'776638'
p3109
I146138
sS'776385'
p3110
I145881
sS'776384'
p3111
I145880
sS'776387'
p3112
I145883
sS'776386'
p3113
I145882
sS'776381'
p3114
I145877
sS'776380'
p3115
I145876
sS'776383'
p3116
I145879
sS'776382'
p3117
I145878
sS'780044'
p3118
I149547
sS'780466'
p3119
I149903
sS'776389'
p3120
I145885
sS'776388'
p3121
I145884
sS'777749'
p3122
I147158
sS'778141'
p3123
I147572
sS'778185'
p3124
I147619
sS'778184'
p3125
I147618
sS'776549'
p3126
I146047
sS'778187'
p3127
I147621
sS'778186'
p3128
I147620
sS'778181'
p3129
I147615
sS'778140'
p3130
I147571
sS'778180'
p3131
I147614
sS'778888'
p3132
I148369
sS'778889'
p3133
I148370
sS'780042'
p3134
I149545
sS'780149'
p3135
I149656
sS'778884'
p3136
I148365
sS'778885'
p3137
I148366
sS'778886'
p3138
I148367
sS'778182'
p3139
I147616
sS'778880'
p3140
I148361
sS'778881'
p3141
I148362
sS'780140'
p3142
I149647
sS'778883'
p3143
I148364
sS'777568'
p3144
I146974
sS'778143'
p3145
I147574
sS'780041'
p3146
I149544
sS'779612'
p3147
I149103
sS'778236'
p3148
I147670
sS'779308'
p3149
I148792
sS'779610'
p3150
I149101
sS'779611'
p3151
I149102
sS'779733'
p3152
I149230
sS'778747'
p3153
I148220
sS'779446'
p3154
I148932
sS'778746'
p3155
I148219
sS'780490'
p3156
I149931
sS'780491'
p3157
I149932
sS'780492'
p3158
I149933
sS'777753'
p3159
I147162
sS'778745'
p3160
I148218
sS'778744'
p3161
I148217
sS'778145'
p3162
I147577
sS'778743'
p3163
I148216
sS'778742'
p3164
I148215
sS'779618'
p3165
I149109
sS'777429'
p3166
I146830
sS'779738'
p3167
I149235
sS'778212'
p3168
I147646
sS'779196'
p3169
I148677
sS'780439'
p3170
I149873
sS'778866'
p3171
I148346
sS'778867'
p3172
I148347
sS'778864'
p3173
I148343
sS'778865'
p3174
I148345
sS'778862'
p3175
I148340
sS'778863'
p3176
I148342
sS'778860'
p3177
I148337
sS'778861'
p3178
I148338
sS'776927'
p3179
I146430
sS'778868'
p3180
I148348
sS'778869'
p3181
I148349
sS'779757'
p3182
I149255
sS'779756'
p3183
I149254
sS'779755'
p3184
I149253
sS'779754'
p3185
I149252
sS'779753'
p3186
I149251
sS'779752'
p3187
I149250
sS'779751'
p3188
I149249
sS'779750'
p3189
I149248
sS'779759'
p3190
I149257
sS'779758'
p3191
I149256
sS'779289'
p3192
I148772
sS'779288'
p3193
I148771
sS'777702'
p3194
I147110
sS'779281'
p3195
I148764
sS'779280'
p3196
I148763
sS'779283'
p3197
I148766
sS'779282'
p3198
I148765
sS'779285'
p3199
I148768
sS'779284'
p3200
I148767
sS'779287'
p3201
I148770
sS'779286'
p3202
I148769
sS'778691'
p3203
I148164
sS'778690'
p3204
I148163
sS'778693'
p3205
I148166
sS'779359'
p3206
I148843
sS'777987'
p3207
I147417
sS'780080'
p3208
I149584
sS'779353'
p3209
I148837
sS'778695'
p3210
I148168
sS'779351'
p3211
I148835
sS'779350'
p3212
I148834
sS'779357'
p3213
I148841
sS'779356'
p3214
I148840
sS'779355'
p3215
I148839
sS'777637'
p3216
I147045
sS'779133'
p3217
I148611
sS'779132'
p3218
I148610
sS'779131'
p3219
I148609
sS'779130'
p3220
I148608
sS'779137'
p3221
I148615
sS'779136'
p3222
I148614
sS'779135'
p3223
I148613
sS'779134'
p3224
I148612
sS'778400'
p3225
I147845
sS'778401'
p3226
I147846
sS'779139'
p3227
I148617
sS'779138'
p3228
I148616
sS'778404'
p3229
I147849
sS'778405'
p3230
I147850
sS'778406'
p3231
I147851
sS'778407'
p3232
I147852
sS'777560'
p3233
I146966
sS'780049'
p3234
I149552
sS'777564'
p3235
I146970
sS'780134'
p3236
I149641
sS'778538'
p3237
I147999
sS'778539'
p3238
I148000
sS'778534'
p3239
I147995
sS'778535'
p3240
I147996
sS'778536'
p3241
I147997
sS'778537'
p3242
I147998
sS'778530'
p3243
I147990
sS'778531'
p3244
I147991
sS'778532'
p3245
I147992
sS'778533'
p3246
I147993
sS'778242'
p3247
I147679
sS'778243'
p3248
I147681
sS'778240'
p3249
I147675
sS'778241'
p3250
I147677
sS'778246'
p3251
I147684
sS'778247'
p3252
I147685
sS'778244'
p3253
I147682
sS'778245'
p3254
I147683
sS'778248'
p3255
I147686
sS'778249'
p3256
I147687
sS'778718'
p3257
I148191
sS'777111'
p3258
I146489
sS'778084'
p3259
I147515
sS'778085'
p3260
I147516
sS'776926'
p3261
I146429
sS'777446'
p3262
I146848
sS'778080'
p3263
I147511
sS'778081'
p3264
I147512
sS'779629'
p3265
I149120
sS'778083'
p3266
I147514
sS'779627'
p3267
I149118
sS'778027'
p3268
I147458
sS'779625'
p3269
I149116
sS'779624'
p3270
I149115
sS'778088'
p3271
I147519
sS'778089'
p3272
I147521
sS'779621'
p3273
I149112
sS'777116'
p3274
I146494
sS'780147'
p3275
I149654
sS'778887'
p3276
I148368
sS'777115'
p3277
I146493
sS'780142'
p3278
I149649
sS'777114'
p3279
I146492
sS'780143'
p3280
I149650
sS'777567'
p3281
I146973
sS'777290'
p3282
I146678
sS'777609'
p3283
I147017
sS'777608'
p3284
I147016
sS'777979'
p3285
I147409
sS'777978'
p3286
I147408
sS'777563'
p3287
I146969
sS'777603'
p3288
I147011
sS'777602'
p3289
I147010
sS'777601'
p3290
I147009
sS'777600'
p3291
I147008
sS'777971'
p3292
I147399
sS'777970'
p3293
I147398
sS'777973'
p3294
I147401
sS'777972'
p3295
I147400
sS'776558'
p3296
I146056
sS'776559'
p3297
I146057
sS'776463'
p3298
I145961
sS'776550'
p3299
I146048
sS'776551'
p3300
I146049
sS'776552'
p3301
I146050
sS'776553'
p3302
I146051
sS'776554'
p3303
I146052
sS'776555'
p3304
I146053
sS'776556'
p3305
I146054
sS'776557'
p3306
I146055
sS'776709'
p3307
I146209
sS'778661'
p3308
I148134
sS'778662'
p3309
I148135
sS'778663'
p3310
I148136
sS'778664'
p3311
I148137
sS'778665'
p3312
I148138
sS'778666'
p3313
I148139
sS'778667'
p3314
I148140
sS'778668'
p3315
I148141
sS'778669'
p3316
I148142
sS'777297'
p3317
I146685
sS'778390'
p3318
I147835
sS'778391'
p3319
I147836
sS'778392'
p3320
I147837
sS'778393'
p3321
I147838
sS'776958'
p3322
I146462
sS'776959'
p3323
I146463
sS'778396'
p3324
I147841
sS'778397'
p3325
I147842
sS'776954'
p3326
I146458
sS'776955'
p3327
I146459
sS'776956'
p3328
I146460
sS'776957'
p3329
I146461
sS'776950'
p3330
I146454
sS'776951'
p3331
I146455
sS'776952'
p3332
I146456
sS'776953'
p3333
I146457
sS'777777'
p3334
I147188
sS'777776'
p3335
I147187
sS'777775'
p3336
I147186
sS'777774'
p3337
I147185
sS'777773'
p3338
I147184
sS'777772'
p3339
I147183
sS'777771'
p3340
I147182
sS'777770'
p3341
I147181
sS'777779'
p3342
I147190
sS'777778'
p3343
I147189
sS'779542'
p3344
I149033
sS'777399'
p3345
I146798
sS'777398'
p3346
I146797
sS'779543'
p3347
I149034
sS'777395'
p3348
I146794
sS'777394'
p3349
I146793
sS'777397'
p3350
I146796
sS'777396'
p3351
I146795
sS'777391'
p3352
I146790
sS'779540'
p3353
I149031
sS'777393'
p3354
I146792
sS'777392'
p3355
I146791
sS'779628'
p3356
I149119
sS'779541'
p3357
I149032
sS'779928'
p3358
I149428
sS'779929'
p3359
I149430
sS'777159'
p3360
I146537
sS'777158'
p3361
I146536
sS'777157'
p3362
I146535
sS'777156'
p3363
I146534
sS'777155'
p3364
I146533
sS'777154'
p3365
I146532
sS'777153'
p3366
I146531
sS'777152'
p3367
I146530
sS'777151'
p3368
I146529
sS'778548'
p3369
I148009
sS'779544'
p3370
I149035
sS'776921'
p3371
I146424
sS'779545'
p3372
I149036
sS'777805'
p3373
I147216
sS'777552'
p3374
I146958
sS'777807'
p3375
I147218
sS'777550'
p3376
I146956
sS'777557'
p3377
I146963
sS'777800'
p3378
I147211
sS'777555'
p3379
I146961
sS'777802'
p3380
I147213
sS'776820'
p3381
I146323
sS'776821'
p3382
I146324
sS'777559'
p3383
I146965
sS'777558'
p3384
I146964
sS'777809'
p3385
I147220
sS'778547'
p3386
I148008
sS'776826'
p3387
I146329
sS'776827'
p3388
I146330
sS'776600'
p3389
I146098
sS'776601'
p3390
I146099
sS'776602'
p3391
I146100
sS'780022'
p3392
I149525
sS'780025'
p3393
I149528
sS'780024'
p3394
I149527
sS'780027'
p3395
I149530
sS'780026'
p3396
I149529
sS'776608'
p3397
I146106
sS'780028'
p3398
I149531
sS'779626'
p3399
I149117
sS'779019'
p3400
I148502
sS'778543'
p3401
I148004
sS'776868'
p3402
I146371
sS'778542'
p3403
I148003
sS'776869'
p3404
I146372
sS'780086'
p3405
I149590
sS'776734'
p3406
I146234
sS'776735'
p3407
I146235
sS'776736'
p3408
I146236
sS'776737'
p3409
I146237
sS'776730'
p3410
I146230
sS'776731'
p3411
I146231
sS'776732'
p3412
I146232
sS'776733'
p3413
I146233
sS'776738'
p3414
I146239
sS'776739'
p3415
I146240
sS'778702'
p3416
I148175
sS'779782'
p3417
I149280
sS'779425'
p3418
I148911
sS'778899'
p3419
I148380
sS'778898'
p3420
I148379
sS'780159'
p3421
I149666
sS'780158'
p3422
I149665
sS'779424'
p3423
I148910
sS'778893'
p3424
I148374
sS'778892'
p3425
I148373
sS'780157'
p3426
I149664
sS'778890'
p3427
I148371
sS'778897'
p3428
I148378
sS'778896'
p3429
I148377
sS'778895'
p3430
I148376
sS'778894'
p3431
I148375
sS'779394'
p3432
I148880
sS'779689'
p3433
I149184
sS'779623'
p3434
I149114
sS'779421'
p3435
I148907
sS'779420'
p3436
I148906
sS'778937'
p3437
I148418
sS'779423'
p3438
I148909
sS'778720'
p3439
I148193
sS'779422'
p3440
I148908
sS'780487'
p3441
I149928
sS'780486'
p3442
I149927
sS'780485'
p3443
I149926
sS'780484'
p3444
I149925
sS'779622'
p3445
I149113
sS'780482'
p3446
I149922
sS'780481'
p3447
I149921
sS'780480'
p3448
I149919
sS'777796'
p3449
I147207
sS'780145'
p3450
I149652
sS'777141'
p3451
I146519
sS'780488'
p3452
I149929
sS'776514'
p3453
I146012
sS'777840'
p3454
I147258
sS'777843'
p3455
I147261
sS'777842'
p3456
I147260
sS'776510'
p3457
I146008
sS'777844'
p3458
I147262
sS'780246'
p3459
I149753
sS'777846'
p3460
I147265
sS'779620'
p3461
I149111
sS'777808'
p3462
I147219
sS'777362'
p3463
I146757
sS'780494'
p3464
I149935
sS'777363'
p3465
I146758
sS'778875'
p3466
I148355
sS'778874'
p3467
I148354
sS'778877'
p3468
I148357
sS'778876'
p3469
I148356
sS'778871'
p3470
I148351
sS'778870'
p3471
I148350
sS'778873'
p3472
I148353
sS'778872'
p3473
I148352
sS'778879'
p3474
I148360
sS'778878'
p3475
I148359
sS'779722'
p3476
I149219
sS'779723'
p3477
I149220
sS'779720'
p3478
I149217
sS'779721'
p3479
I149218
sS'779726'
p3480
I149223
sS'779727'
p3481
I149224
sS'779724'
p3482
I149221
sS'779725'
p3483
I149222
sS'776763'
p3484
I146265
sS'779728'
p3485
I149225
sS'779729'
p3486
I149226
sS'777519'
p3487
I146925
sS'779905'
p3488
I149404
sS'777369'
p3489
I146764
sS'776488'
p3490
I145986
sS'780011'
p3491
I149511
sS'777166'
p3492
I146545
sS'779976'
p3493
I149476
sS'779975'
p3494
I149475
sS'779974'
p3495
I149474
sS'776489'
p3496
I145987
sS'779973'
p3497
I149473
sS'779141'
p3498
I148619
sS'779972'
p3499
I149472
sS'778307'
p3500
I147748
sS'779971'
p3501
I149471
sS'778306'
p3502
I147747
sS'779970'
p3503
I149470
sS'778946'
p3504
I148427
sS'779380'
p3505
I148865
sS'779381'
p3506
I148866
sS'779382'
p3507
I148867
sS'779383'
p3508
I148868
sS'779384'
p3509
I148870
sS'779385'
p3510
I148871
sS'779386'
p3511
I148872
sS'779387'
p3512
I148873
sS'779388'
p3513
I148874
sS'779389'
p3514
I148875
sS'779434'
p3515
I148920
sS'779435'
p3516
I148921
sS'779432'
p3517
I148918
sS'779433'
p3518
I148919
sS'779430'
p3519
I148916
sS'779431'
p3520
I148917
sS'777148'
p3521
I146526
sS'779293'
p3522
I148777
sS'777985'
p3523
I147415
sS'778529'
p3524
I147989
sS'778528'
p3525
I147988
sS'778523'
p3526
I147983
sS'778522'
p3527
I147982
sS'778521'
p3528
I147981
sS'778520'
p3529
I147980
sS'778527'
p3530
I147987
sS'778526'
p3531
I147986
sS'778525'
p3532
I147985
sS'778524'
p3533
I147984
sS'778251'
p3534
I147689
sS'778250'
p3535
I147688
sS'778253'
p3536
I147691
sS'778252'
p3537
I147690
sS'778255'
p3538
I147693
sS'778254'
p3539
I147692
sS'778705'
p3540
I148178
sS'778256'
p3541
I147694
sS'778259'
p3542
I147697
sS'778258'
p3543
I147696
sS'778709'
p3544
I148182
sS'778708'
p3545
I148181
sS'776490'
p3546
I145988
sS'778093'
p3547
I147525
sS'778092'
p3548
I147524
sS'779658'
p3549
I149150
sS'779659'
p3550
I149151
sS'778097'
p3551
I147529
sS'778096'
p3552
I147528
sS'778095'
p3553
I147527
sS'778094'
p3554
I147526
sS'779652'
p3555
I149143
sS'779653'
p3556
I149144
sS'779650'
p3557
I149141
sS'779651'
p3558
I149142
sS'779656'
p3559
I149148
sS'779657'
p3560
I149149
sS'779654'
p3561
I149145
sS'779655'
p3562
I149147
sS'777948'
p3563
I147373
sS'778416'
p3564
I147861
sS'778415'
p3565
I147860
sS'778414'
p3566
I147859
sS'778413'
p3567
I147858
sS'778412'
p3568
I147857
sS'778411'
p3569
I147856
sS'778410'
p3570
I147855
sS'777940'
p3571
I147363
sS'777941'
p3572
I147364
sS'777942'
p3573
I147365
sS'777943'
p3574
I147367
sS'777944'
p3575
I147368
sS'777945'
p3576
I147369
sS'777946'
p3577
I147370
sS'777947'
p3578
I147372
sS'777513'
p3579
I146919
sS'780162'
p3580
I149669
sS'779633'
p3581
I149124
sS'778066'
p3582
I147497
sS'779551'
p3583
I149042
sS'780021'
p3584
I149524
sS'778679'
p3585
I148152
sS'778678'
p3586
I148151
sS'778677'
p3587
I148150
sS'778676'
p3588
I148149
sS'778674'
p3589
I148147
sS'778673'
p3590
I148146
sS'778672'
p3591
I148145
sS'778671'
p3592
I148144
sS'777492'
p3593
I146898
sS'776829'
p3594
I146332
sS'777490'
p3595
I146895
sS'777491'
p3596
I146897
sS'777496'
p3597
I146902
sS'777497'
p3598
I146903
sS'777494'
p3599
I146900
sS'777495'
p3600
I146901
sS'776943'
p3601
I146447
sS'776942'
p3602
I146446
sS'777498'
p3603
I146904
sS'777499'
p3604
I146905
sS'776947'
p3605
I146451
sS'776946'
p3606
I146450
sS'778381'
p3607
I147826
sS'776944'
p3608
I146448
sS'777554'
p3609
I146960
sS'777703'
p3610
I147111
sS'777700'
p3611
I147108
sS'777701'
p3612
I147109
sS'777706'
p3613
I147114
sS'777707'
p3614
I147115
sS'779170'
p3615
I148649
sS'777705'
p3616
I147113
sS'777708'
p3617
I147116
sS'777709'
p3618
I147117
sS'780034'
p3619
I149537
sS'779553'
p3620
I149044
sS'779939'
p3621
I149440
sS'779938'
p3622
I149439
sS'779933'
p3623
I149434
sS'779932'
p3624
I149433
sS'779931'
p3625
I149432
sS'779930'
p3626
I149431
sS'779937'
p3627
I149438
sS'779936'
p3628
I149437
sS'779935'
p3629
I149436
sS'777125'
p3630
I146503
sS'776837'
p3631
I146340
sS'776836'
p3632
I146339
sS'776835'
p3633
I146338
sS'776834'
p3634
I146337
sS'776833'
p3635
I146336
sS'776832'
p3636
I146335
sS'776831'
p3637
I146334
sS'776830'
p3638
I146333
sS'779552'
p3639
I149043
sS'776839'
p3640
I146342
sS'776838'
p3641
I146341
sS'776547'
p3642
I146045
sS'777831'
p3643
I147249
sS'776545'
p3644
I146043
sS'776544'
p3645
I146042
sS'777834'
p3646
I147252
sS'776542'
p3647
I146040
sS'776541'
p3648
I146039
sS'776540'
p3649
I146038
sS'777838'
p3650
I147256
sS'777839'
p3651
I147257
sS'779637'
p3652
I149128
sS'776548'
p3653
I146046
sS'780018'
p3654
I149521
sS'780019'
p3655
I149522
sS'776618'
p3656
I146118
sS'780014'
p3657
I149517
sS'780015'
p3658
I149518
sS'780016'
p3659
I149519
sS'780017'
p3660
I149520
sS'776613'
p3661
I146112
sS'776612'
p3662
I146111
sS'776611'
p3663
I146109
sS'780013'
p3664
I149516
sS'777236'
p3665
I146622
sS'777237'
p3666
I146623
sS'777235'
p3667
I146621
sS'777232'
p3668
I146618
sS'777233'
p3669
I146619
sS'777230'
p3670
I146616
sS'777231'
p3671
I146617
sS'779292'
p3672
I148776
sS'777704'
p3673
I147112
sS'779638'
p3674
I149129
sS'778832'
p3675
I148307
sS'777238'
p3676
I146624
sS'777239'
p3677
I146625
sS'779554'
p3678
I149045
sS'780020'
p3679
I149523
sS'780116'
p3680
I149622
sS'776723'
p3681
I146223
sS'776722'
p3682
I146222
sS'776721'
p3683
I146221
sS'776720'
p3684
I146220
sS'776727'
p3685
I146227
sS'776726'
p3686
I146226
sS'776725'
p3687
I146225
sS'776724'
p3688
I146224
sS'776729'
p3689
I146229
sS'776728'
p3690
I146228
sS'776582'
p3691
I146080
sS'778464'
p3692
I147911
sS'779557'
p3693
I149048
sS'780168'
p3694
I149676
sS'780169'
p3695
I149677
sS'779290'
p3696
I148774
sS'780160'
p3697
I149667
sS'780161'
p3698
I149668
sS'778018'
p3699
I147449
sS'780163'
p3700
I149670
sS'780164'
p3701
I149671
sS'780165'
p3702
I149672
sS'780166'
p3703
I149673
sS'780167'
p3704
I149674
sS'779556'
p3705
I149047
sS'780059'
p3706
I149562
sS'780408'
p3707
I149842
sS'778965'
p3708
I148446
sS'778388'
p3709
I147833
sS'778344'
p3710
I147788
sS'780402'
p3711
I149836
sS'779539'
p3712
I149030
sS'778882'
p3713
I148363
sS'777851'
p3714
I147270
sS'776822'
p3715
I146325
sS'776918'
p3716
I146421
sS'779163'
p3717
I148641
sS'780023'
p3718
I149526
sS'778087'
p3719
I147518
sS'779294'
p3720
I148778
sS'778064'
p3721
I147495
sS'776919'
p3722
I146422
sS'778385'
p3723
I147830
sS'779295'
p3724
I148779
sS'776824'
p3725
I146327
sS'778840'
p3726
I148315
sS'778841'
p3727
I148316
sS'778842'
p3728
I148317
sS'778843'
p3729
I148318
sS'778844'
p3730
I148319
sS'778845'
p3731
I148320
sS'778846'
p3732
I148321
sS'778847'
p3733
I148322
sS'778848'
p3734
I148323
sS'778849'
p3735
I148324
sS'779453'
p3736
I148939
sS'778384'
p3737
I147829
sS'779731'
p3738
I149228
sS'779730'
p3739
I149227
sS'778736'
p3740
I148209
sS'779732'
p3741
I149229
sS'779735'
p3742
I149232
sS'779734'
p3743
I149231
sS'779737'
p3744
I149234
sS'779736'
p3745
I149233
sS'779739'
p3746
I149236
sS'776825'
p3747
I146328
sS'779352'
p3748
I148836
sS'778012'
p3749
I147443
sS'779358'
p3750
I148842
sS'778383'
p3751
I147828
sS'778737'
p3752
I148210
sS'777292'
p3753
I146680
sS'778011'
p3754
I147442
sS'779988'
p3755
I149488
sS'779454'
p3756
I148940
sS'779989'
p3757
I149489
sS'779455'
p3758
I148941
sS'778382'
p3759
I147827
sS'779456'
p3760
I148942
sS'779457'
p3761
I148944
sS'779450'
p3762
I148936
sS'778010'
p3763
I147441
sS'777631'
p3764
I147039
sS'779451'
p3765
I148937
sS'777173'
p3766
I146554
sS'779429'
p3767
I148915
sS'779428'
p3768
I148914
sS'779399'
p3769
I148885
sS'779398'
p3770
I148884
sS'779397'
p3771
I148883
sS'779396'
p3772
I148882
sS'779427'
p3773
I148913
sS'779426'
p3774
I148912
sS'779393'
p3775
I148879
sS'779392'
p3776
I148878
sS'779391'
p3777
I148877
sS'779390'
p3778
I148876
sS'778017'
p3779
I147448
sS'779986'
p3780
I149486
sS'779987'
p3781
I149487
sS'779169'
p3782
I148648
sS'778380'
p3783
I147825
sS'777553'
p3784
I146959
sS'778268'
p3785
I147706
sS'778269'
p3786
I147707
sS'778016'
p3787
I147447
sS'778264'
p3788
I147702
sS'778265'
p3789
I147703
sS'778266'
p3790
I147704
sS'778267'
p3791
I147705
sS'778260'
p3792
I147698
sS'778261'
p3793
I147699
sS'778262'
p3794
I147700
sS'778263'
p3795
I147701
sS'779649'
p3796
I149140
sS'779648'
p3797
I149139
sS'780237'
p3798
I149744
sS'778068'
p3799
I147499
sS'778069'
p3800
I147500
sS'779641'
p3801
I149132
sS'779640'
p3802
I149131
sS'779643'
p3803
I149134
sS'779642'
p3804
I149133
sS'779645'
p3805
I149136
sS'779644'
p3806
I149135
sS'779647'
p3807
I149138
sS'779646'
p3808
I149137
sS'777957'
p3809
I147384
sS'777956'
p3810
I147383
sS'777955'
p3811
I147382
sS'777954'
p3812
I147381
sS'777953'
p3813
I147380
sS'777952'
p3814
I147378
sS'777950'
p3815
I147375
sS'776910'
p3816
I146413
sS'777959'
p3817
I147386
sS'777958'
p3818
I147385
sS'778462'
p3819
I147909
sS'778463'
p3820
I147910
sS'778460'
p3821
I147907
sS'778461'
p3822
I147908
sS'778466'
p3823
I147914
sS'778467'
p3824
I147915
sS'779051'
p3825
I148531
sS'778465'
p3826
I147912
sS'776817'
p3827
I146320
sS'778468'
p3828
I147916
sS'778469'
p3829
I147917
sS'778608'
p3830
I148075
sS'778609'
p3831
I148076
sS'780154'
p3832
I149661
sS'778602'
p3833
I148069
sS'778603'
p3834
I148070
sS'778600'
p3835
I148067
sS'778601'
p3836
I148068
sS'778606'
p3837
I148073
sS'778607'
p3838
I148074
sS'778604'
p3839
I148071
sS'778605'
p3840
I148072
sS'777481'
p3841
I146886
sS'777480'
p3842
I146885
sS'777483'
p3843
I146888
sS'777482'
p3844
I146887
sS'777485'
p3845
I146890
sS'777484'
p3846
I146889
sS'777487'
p3847
I146892
sS'777486'
p3848
I146891
sS'777489'
p3849
I146894
sS'777488'
p3850
I146893
sS'777711'
p3851
I147119
sS'777710'
p3852
I147118
sS'777713'
p3853
I147121
sS'777712'
p3854
I147120
sS'777715'
p3855
I147123
sS'777714'
p3856
I147122
sS'777717'
p3857
I147125
sS'777716'
p3858
I147124
sS'777719'
p3859
I147127
sS'777718'
p3860
I147126
s.