(dp0
I188812864
(lp1
Vsub
p2
aVtelegram
p3
asI97663562
(lp4
V_
p5
aVwaifu
p6
asI433542283
(lp7
Vtm
p8
aS'bug'
p9
asI143763310
(lp10
Vizingulube
p11
aVswine
p12
asI467838895
(lp13
S'alfbot'
p14
aS'bug'
p15
asI358650739
(lp16
Vfrog
p17
aVnavy
p18
asI454554133
(lp19
Vncat
p20
aVfuture
p21
asI442829112
(lp22
Vskinkot
p23
aVDNR
p24
asI506019517
(lp25
VMobileAnse
p26
aVscotkot
p27
as.